EXPORTS
    SampleAddInt @1
    SampleFunction1 @2
    SampleFunction2 @3
    _ZN10gameEngine10FPSlimiter12calculateFPSEv @4
    _ZN10gameEngine10FPSlimiter3endEv @5
    _ZN10gameEngine10FPSlimiter4initEf @6
    _ZN10gameEngine10FPSlimiter5beginEv @7
    _ZN10gameEngine10FPSlimiter9setMaxFPSEf @8
    _ZN10gameEngine10FPSlimiterC1Ev @9
    _ZN10gameEngine10FPSlimiterC2Ev @10
    _ZN10gameEngine10fatalErrorESs @11
    _ZN10gameEngine11RenderBatchC1Ejjj @12
    _ZN10gameEngine11imageLoader7loadPNGESs @13
    _ZN10gameEngine11spriteBatch10sortGlyphsEv @14
    _ZN10gameEngine11spriteBatch11renderBatchEv @15
    _ZN10gameEngine11spriteBatch14compareTextureEPNS_5glyphES2_ @16
    _ZN10gameEngine11spriteBatch17createVertexArrayEv @17
    _ZN10gameEngine11spriteBatch18compareBackToFrontEPNS_5glyphES2_ @18
    _ZN10gameEngine11spriteBatch18compareFrontToBackEPNS_5glyphES2_ @19
    _ZN10gameEngine11spriteBatch19createRenderBatchesEv @20
    _ZN10gameEngine11spriteBatch3endEv @21
    _ZN10gameEngine11spriteBatch4drawERKN3glm5tvec4IfLNS1_9precisionE0EEES6_fjRKNS_5ColorE @22
    _ZN10gameEngine11spriteBatch4initEv @23
    _ZN10gameEngine11spriteBatch5beginENS_13glyphSortTypeE @24
    _ZN10gameEngine11spriteBatchC1Ev @25
    _ZN10gameEngine11spriteBatchC2Ev @26
    _ZN10gameEngine11spriteBatchD0Ev @27
    _ZN10gameEngine11spriteBatchD1Ev @28
    _ZN10gameEngine11spriteBatchD2Ev @29
    _ZN10gameEngine12TextureCache10getTextureESs @30
    _ZN10gameEngine12TextureCacheC1Ev @31
    _ZN10gameEngine12TextureCacheC2Ev @32
    _ZN10gameEngine12TextureCacheD0Ev @33
    _ZN10gameEngine12TextureCacheD1Ev @34
    _ZN10gameEngine12TextureCacheD2Ev @35
    _ZN10gameEngine15ResourceManager10getTextureESs @36
    _ZN10gameEngine15ResourceManager13_textureCacheE @37 DATA
    _ZN10gameEngine4initEv @38
    _ZN10gameEngine6Window11swapBuffersEv @39
    _ZN10gameEngine6Window6createESsiij @40
    _ZN10gameEngine6WindowC1Ev @41
    _ZN10gameEngine6WindowC2Ev @42
    _ZN10gameEngine6WindowD0Ev @43
    _ZN10gameEngine6WindowD1Ev @44
    _ZN10gameEngine6WindowD2Ev @45
    _ZN10gameEngine6sprite4drawEv @46
    _ZN10gameEngine6sprite4initEffffSs @47
    _ZN10gameEngine6spriteC1Ev @48
    _ZN10gameEngine6spriteC2Ev @49
    _ZN10gameEngine6spriteD0Ev @50
    _ZN10gameEngine6spriteD1Ev @51
    _ZN10gameEngine6spriteD2Ev @52
    _ZN10gameEngine6vertex9setVertexEffffffff @53
    _ZN10gameEngine8Camera2D20convertScreenToWorldEN3glm5tvec2IfLNS1_9precisionE0EEE @54
    _ZN10gameEngine8Camera2D4initEii @55
    _ZN10gameEngine8Camera2D6updateEv @56
    _ZN10gameEngine8Camera2DC1Ev @57
    _ZN10gameEngine8Camera2DC2Ev @58
    _ZN10gameEngine8Camera2DD0Ev @59
    _ZN10gameEngine8Camera2DD1Ev @60
    _ZN10gameEngine8Camera2DD2Ev @61
    _ZN10gameEngine8GLSLprog10linkShaderEv @62
    _ZN10gameEngine8GLSLprog13compileShaderERKSsS2_ @63
    _ZN10gameEngine8GLSLprog13compileShaderERKSsj @64
    _ZN10gameEngine8GLSLprog18getUniformLocationERKSs @65
    _ZN10gameEngine8GLSLprog3useEv @66
    _ZN10gameEngine8GLSLprog5unuseEv @67
    _ZN10gameEngine8GLSLprog9addAttribERKSs @68
    _ZN10gameEngine8GLSLprogC1Ev @69
    _ZN10gameEngine8GLSLprogC2Ev @70
    _ZN10gameEngine8GLSLprogD0Ev @71
    _ZN10gameEngine8GLSLprogD1Ev @72
    _ZN10gameEngine8GLSLprogD2Ev @73
    _ZN10gameEngine9IOManager16readFileToBufferESsRSt6vectorIhSaIhEE @74
    _ZN10gameEngine9decodePNGERSt6vectorIhSaIhEERmS4_PKhjb @75
    _ZN12InputManager10keyReleaseEj @76
    _ZN12InputManager12isKeyPressedEj @77
    _ZN12InputManager14setMouseCoordsEff @78
    _ZN12InputManager8keyPressEj @79
    _ZN12InputManagerC1Ev @80
    _ZN12InputManagerC2Ev @81
    _ZN12InputManagerD0Ev @82
    _ZN12InputManagerD1Ev @83
    _ZN12InputManagerD2Ev @84
    _ZN3glm5orthoIfEENS_7tmat4x4IT_LNS_9precisionE0EEES2_S2_S2_S2_ @85
    _ZN3glm5scaleIfLNS_9precisionE0EEENS_7tmat4x4IT_XT0_EEERKS4_RKNS_5tvec3IS3_XT0_EEE @86
    _ZN3glm5tvec2IfLNS_9precisionE0EEC1ERKfS4_ @87
    _ZN3glm5tvec2IfLNS_9precisionE0EEC1Ev @88
    _ZN3glm5tvec2IfLNS_9precisionE0EEC1IiiEERKT_RKT0_ @89
    _ZN3glm5tvec2IfLNS_9precisionE0EEdVIfEERS2_RKNS0_IT_LS1_0EEE @90
    _ZN3glm5tvec2IfLNS_9precisionE0EEmIIfEERS2_RKNS0_IT_LS1_0EEE @91
    _ZN3glm5tvec3IfLNS_9precisionE0EEC1ERKfS4_S4_ @92
    _ZN3glm5tvec4IfLNS_9precisionE0EEC1Effff @93
    _ZN3glm5tvec4IfLNS_9precisionE0EEC1Ev @94
    _ZN3glm5tvec4IfLNS_9precisionE0EEC1IfiiiEET_T0_T1_T2_ @95
    _ZN3glm5tvec4IfLNS_9precisionE0EEC1IifiiEET_T0_T1_T2_ @96
    _ZN3glm5tvec4IfLNS_9precisionE0EEC1IiifiEET_T0_T1_T2_ @97
    _ZN3glm5tvec4IfLNS_9precisionE0EEC1IiiifEET_T0_T1_T2_ @98
    _ZN3glm5tvec4IfLNS_9precisionE0EEixEi @99
    _ZN3glm6detail15component_countINS_5tvec3IfLNS_9precisionE0EEEEEiRKT_ @100
    _ZN3glm6detail15component_countINS_5tvec4IfLNS_9precisionE0EEEEEiRKT_ @101
    _ZN3glm7tmat4x4IfLNS_9precisionE0EEC1ENS_4ctorE @102
    _ZN3glm7tmat4x4IfLNS_9precisionE0EEC1ERKf @103
    _ZN3glm7tmat4x4IfLNS_9precisionE0EEixEi @104
    _ZN3glm9translateIfLNS_9precisionE0EEENS_7tmat4x4IT_XT0_EEERKS4_RKNS_5tvec3IS3_XT0_EEE @105
    _ZN3glmmiIfLNS_9precisionE0EEENS_5tvec2IT_XT0_EEERKS4_S6_ @106
    _ZN3glmmlIfLNS_9precisionE0EEENS_5tvec4IT_XT0_EEERKS4_S3_ @107
    _ZN3glmmlIfLNS_9precisionE0EEENS_7tmat4x4IT_XT0_EEERKS4_S6_ @108
    _ZN3glmplIfLNS_9precisionE0EEENS_5tvec4IT_XT0_EEERKS4_S6_ @109
    _ZN9__gnu_cxx13new_allocatorIN10gameEngine11RenderBatchEE10deallocateEPS2_j @110
    _ZN9__gnu_cxx13new_allocatorIN10gameEngine11RenderBatchEE7destroyIS2_EEvPT_ @111
    _ZN9__gnu_cxx13new_allocatorIN10gameEngine11RenderBatchEE8allocateEjPKv @112
    _ZN9__gnu_cxx13new_allocatorIN10gameEngine11RenderBatchEE9constructIS2_IRiiRjEEEvPT_DpOT0_ @113
    _ZN9__gnu_cxx13new_allocatorIN10gameEngine11RenderBatchEEC2Ev @114
    _ZN9__gnu_cxx13new_allocatorIN10gameEngine11RenderBatchEED2Ev @115
    _ZN9__gnu_cxx13new_allocatorIN10gameEngine6vertexEE10deallocateEPS2_j @116
    _ZN9__gnu_cxx13new_allocatorIN10gameEngine6vertexEE8allocateEjPKv @117
    _ZN9__gnu_cxx13new_allocatorIN10gameEngine6vertexEEC2Ev @118
    _ZN9__gnu_cxx13new_allocatorIN10gameEngine6vertexEED2Ev @119
    _ZN9__gnu_cxx13new_allocatorINSt8__detail10_Hash_nodeISt4pairIKjbELb0EEEE10deallocateEPS6_j @120
    _ZN9__gnu_cxx13new_allocatorINSt8__detail10_Hash_nodeISt4pairIKjbELb0EEEE7destroyIS6_EEvPT_ @121
    _ZN9__gnu_cxx13new_allocatorINSt8__detail10_Hash_nodeISt4pairIKjbELb0EEEE8allocateEjPKv @122
    _ZN9__gnu_cxx13new_allocatorINSt8__detail10_Hash_nodeISt4pairIKjbELb0EEEE9constructIS6_IRKSt21piecewise_construct_tSt5tupleIIRS4_EESC_IIEEEEEvPT_DpOT0_ @123
    _ZN9__gnu_cxx13new_allocatorINSt8__detail10_Hash_nodeISt4pairIKjbELb0EEEEC2Ev @124
    _ZN9__gnu_cxx13new_allocatorINSt8__detail10_Hash_nodeISt4pairIKjbELb0EEEED2Ev @125
    _ZN9__gnu_cxx13new_allocatorIPN10gameEngine5glyphEE10deallocateEPS3_j @126
    _ZN9__gnu_cxx13new_allocatorIPN10gameEngine5glyphEE7destroyIS3_EEvPT_ @127
    _ZN9__gnu_cxx13new_allocatorIPN10gameEngine5glyphEE8allocateEjPKv @128
    _ZN9__gnu_cxx13new_allocatorIPN10gameEngine5glyphEE9constructIS3_IRKS3_EEEvPT_DpOT0_ @129
    _ZN9__gnu_cxx13new_allocatorIPN10gameEngine5glyphEEC2Ev @130
    _ZN9__gnu_cxx13new_allocatorIPN10gameEngine5glyphEED2Ev @131
    _ZN9__gnu_cxx13new_allocatorIPNSt8__detail15_Hash_node_baseEE10deallocateEPS3_j @132
    _ZN9__gnu_cxx13new_allocatorIPNSt8__detail15_Hash_node_baseEE8allocateEjPKv @133
    _ZN9__gnu_cxx13new_allocatorIPNSt8__detail15_Hash_node_baseEEC2Ev @134
    _ZN9__gnu_cxx13new_allocatorIPNSt8__detail15_Hash_node_baseEED2Ev @135
    _ZN9__gnu_cxx13new_allocatorISt13_Rb_tree_nodeISt4pairIKSsN10gameEngine9GLtextureEEEE10deallocateEPS7_j @136
    _ZN9__gnu_cxx13new_allocatorISt13_Rb_tree_nodeISt4pairIKSsN10gameEngine9GLtextureEEEE7destroyIS7_EEvPT_ @137
    _ZN9__gnu_cxx13new_allocatorISt13_Rb_tree_nodeISt4pairIKSsN10gameEngine9GLtextureEEEE8allocateEjPKv @138
    _ZN9__gnu_cxx13new_allocatorISt13_Rb_tree_nodeISt4pairIKSsN10gameEngine9GLtextureEEEE9constructIS7_IS2_ISsS5_EEEEvPT_DpOT0_ @139
    _ZN9__gnu_cxx13new_allocatorISt13_Rb_tree_nodeISt4pairIKSsN10gameEngine9GLtextureEEEEC2Ev @140
    _ZN9__gnu_cxx13new_allocatorISt13_Rb_tree_nodeISt4pairIKSsN10gameEngine9GLtextureEEEED2Ev @141
    _ZN9__gnu_cxx13new_allocatorISt4pairIKjbEEC2Ev @142
    _ZN9__gnu_cxx13new_allocatorISt4pairIKjbEED2Ev @143
    _ZN9__gnu_cxx13new_allocatorIcE10deallocateEPcj @144
    _ZN9__gnu_cxx13new_allocatorIcE8allocateEjPKv @145
    _ZN9__gnu_cxx13new_allocatorIhE10deallocateEPhj @146
    _ZN9__gnu_cxx13new_allocatorIhE8allocateEjPKv @147
    _ZN9__gnu_cxx13new_allocatorIhEC2ERKS1_ @148
    _ZN9__gnu_cxx13new_allocatorIhEC2Ev @149
    _ZN9__gnu_cxx13new_allocatorIhED2Ev @150
    _ZN9__gnu_cxx13new_allocatorImE10deallocateEPmj @151
    _ZN9__gnu_cxx13new_allocatorImE8allocateEjPKv @152
    _ZN9__gnu_cxx13new_allocatorImEC2ERKS1_ @153
    _ZN9__gnu_cxx13new_allocatorImEC2Ev @154
    _ZN9__gnu_cxx13new_allocatorImED2Ev @155
    _ZN9__gnu_cxx14__alloc_traitsISaIhEE17_S_select_on_copyERKS1_ @156
    _ZN9__gnu_cxx17__normal_iteratorIPKPN10gameEngine5glyphESt6vectorIS3_SaIS3_EEEC1ERKS5_ @157
    _ZN9__gnu_cxx17__normal_iteratorIPKhSt6vectorIhSaIhEEEC1ERKS2_ @158
    _ZN9__gnu_cxx17__normal_iteratorIPN10gameEngine11RenderBatchESt6vectorIS2_SaIS2_EEEC1ERKS3_ @159
    _ZN9__gnu_cxx17__normal_iteratorIPN10gameEngine6vertexESt6vectorIS2_SaIS2_EEEC1ERKS3_ @160
    _ZN9__gnu_cxx17__normal_iteratorIPPN10gameEngine5glyphESt6vectorIS3_SaIS3_EEEC1ERKS4_ @161
    _ZN9__gnu_cxx17__normal_iteratorIPPN10gameEngine5glyphESt6vectorIS3_SaIS3_EEEmmEv @162
    _ZN9__gnu_cxx17__normal_iteratorIPPN10gameEngine5glyphESt6vectorIS3_SaIS3_EEEpLERKi @163
    _ZN9__gnu_cxx17__normal_iteratorIPPN10gameEngine5glyphESt6vectorIS3_SaIS3_EEEppEv @164
    _ZN9__gnu_cxx17__normal_iteratorIPhSt6vectorIhSaIhEEEC1ERKS1_ @165
    _ZN9__gnu_cxx17__normal_iteratorIPmSt6vectorImSaImEEEC1ERKS1_ @166
    _ZN9__gnu_cxxeqIPKPN10gameEngine5glyphESt6vectorIS3_SaIS3_EEEEbRKNS_17__normal_iteratorIT_T0_EESE_ @167
    _ZN9__gnu_cxxeqIPKhSt6vectorIhSaIhEEEEbRKNS_17__normal_iteratorIT_T0_EESB_ @168
    _ZN9__gnu_cxxeqIPPN10gameEngine5glyphESt6vectorIS3_SaIS3_EEEEbRKNS_17__normal_iteratorIT_T0_EESD_ @169
    _ZN9__gnu_cxxmiIPPN10gameEngine5glyphESt6vectorIS3_SaIS3_EEEENS_17__normal_iteratorIT_T0_E15difference_typeERKSB_SE_ @170
    _ZN9__gnu_cxxmiIPhSt6vectorIhSaIhEEEENS_17__normal_iteratorIT_T0_E15difference_typeERKS8_SB_ @171
    _ZN9__gnu_cxxmiIPmSt6vectorImSaImEEEENS_17__normal_iteratorIT_T0_E15difference_typeERKS8_SB_ @172
    _ZN9__gnu_cxxneIPPN10gameEngine5glyphESt6vectorIS3_SaIS3_EEEEbRKNS_17__normal_iteratorIT_T0_EESD_ @173
    _ZNK3glm5tvec3IfLNS_9precisionE0EE6lengthEv @174
    _ZNK3glm5tvec3IfLNS_9precisionE0EEixEi @175
    _ZNK3glm5tvec4IfLNS_9precisionE0EE6lengthEv @176
    _ZNK3glm5tvec4IfLNS_9precisionE0EEixEi @177
    _ZNK3glm7tmat4x4IfLNS_9precisionE0EE6lengthEv @178
    _ZNK3glm7tmat4x4IfLNS_9precisionE0EEixEi @179
    _ZNK9__gnu_cxx13new_allocatorIN10gameEngine11RenderBatchEE8max_sizeEv @180
    _ZNK9__gnu_cxx13new_allocatorIN10gameEngine6vertexEE8max_sizeEv @181
    _ZNK9__gnu_cxx13new_allocatorINSt8__detail10_Hash_nodeISt4pairIKjbELb0EEEE8max_sizeEv @182
    _ZNK9__gnu_cxx13new_allocatorIPN10gameEngine5glyphEE8max_sizeEv @183
    _ZNK9__gnu_cxx13new_allocatorIPNSt8__detail15_Hash_node_baseEE8max_sizeEv @184
    _ZNK9__gnu_cxx13new_allocatorISt13_Rb_tree_nodeISt4pairIKSsN10gameEngine9GLtextureEEEE8max_sizeEv @185
    _ZNK9__gnu_cxx13new_allocatorIcE8max_sizeEv @186
    _ZNK9__gnu_cxx13new_allocatorIhE8max_sizeEv @187
    _ZNK9__gnu_cxx13new_allocatorImE8max_sizeEv @188
    _ZNK9__gnu_cxx17__normal_iteratorIPKPN10gameEngine5glyphESt6vectorIS3_SaIS3_EEE4baseEv @189
    _ZNK9__gnu_cxx17__normal_iteratorIPKhSt6vectorIhSaIhEEE4baseEv @190
    _ZNK9__gnu_cxx17__normal_iteratorIPN10gameEngine11RenderBatchESt6vectorIS2_SaIS2_EEEdeEv @191
    _ZNK9__gnu_cxx17__normal_iteratorIPN10gameEngine11RenderBatchESt6vectorIS2_SaIS2_EEEmiERKi @192
    _ZNK9__gnu_cxx17__normal_iteratorIPN10gameEngine6vertexESt6vectorIS2_SaIS2_EEEdeEv @193
    _ZNK9__gnu_cxx17__normal_iteratorIPPN10gameEngine5glyphESt6vectorIS3_SaIS3_EEE4baseEv @194
    _ZNK9__gnu_cxx17__normal_iteratorIPPN10gameEngine5glyphESt6vectorIS3_SaIS3_EEEdeEv @195
    _ZNK9__gnu_cxx17__normal_iteratorIPPN10gameEngine5glyphESt6vectorIS3_SaIS3_EEEmiERKi @196
    _ZNK9__gnu_cxx17__normal_iteratorIPPN10gameEngine5glyphESt6vectorIS3_SaIS3_EEEplERKi @197
    _ZNK9__gnu_cxx17__normal_iteratorIPhSt6vectorIhSaIhEEE4baseEv @198
    _ZNK9__gnu_cxx17__normal_iteratorIPmSt6vectorImSaImEEE4baseEv @199
    _ZNKSt10_HashtableIjSt4pairIKjbESaIS2_ENSt8__detail10_Select1stESt8equal_toIjESt4hashIjENS4_18_Mod_range_hashingENS4_20_Default_ranged_hashENS4_20_Prime_rehash_policyENS4_17_Hashtable_traitsILb0ELb0ELb1EEEE12_M_find_nodeEjRS1_j @200
    _ZNKSt10_HashtableIjSt4pairIKjbESaIS2_ENSt8__detail10_Select1stESt8equal_toIjESt4hashIjENS4_18_Mod_range_hashingENS4_20_Default_ranged_hashENS4_20_Prime_rehash_policyENS4_17_Hashtable_traitsILb0ELb0ELb1EEEE15_M_before_beginEv @201
    _ZNKSt10_HashtableIjSt4pairIKjbESaIS2_ENSt8__detail10_Select1stESt8equal_toIjESt4hashIjENS4_18_Mod_range_hashingENS4_20_Default_ranged_hashENS4_20_Prime_rehash_policyENS4_17_Hashtable_traitsILb0ELb0ELb1EEEE15_M_bucket_indexEPNS4_10_Hash_nodeIS2_Lb0EEE @202
    _ZNKSt10_HashtableIjSt4pairIKjbESaIS2_ENSt8__detail10_Select1stESt8equal_toIjESt4hashIjENS4_18_Mod_range_hashingENS4_20_Default_ranged_hashENS4_20_Prime_rehash_policyENS4_17_Hashtable_traitsILb0ELb0ELb1EEEE15_M_bucket_indexERS1_j @203
    _ZNKSt10_HashtableIjSt4pairIKjbESaIS2_ENSt8__detail10_Select1stESt8equal_toIjESt4hashIjENS4_18_Mod_range_hashingENS4_20_Default_ranged_hashENS4_20_Prime_rehash_policyENS4_17_Hashtable_traitsILb0ELb0ELb1EEEE19_M_find_before_nodeEjRS1_j @204
    _ZNKSt10_HashtableIjSt4pairIKjbESaIS2_ENSt8__detail10_Select1stESt8equal_toIjESt4hashIjENS4_18_Mod_range_hashingENS4_20_Default_ranged_hashENS4_20_Prime_rehash_policyENS4_17_Hashtable_traitsILb0ELb0ELb1EEEE8_M_beginEv @205
    _ZNKSt10_Select1stISt4pairIKSsN10gameEngine9GLtextureEEEclERKS4_ @206
    _ZNKSt10_Select1stISt4pairIKSsN10gameEngine9GLtextureEEEclIS0_ISsS3_EEERNT_10first_typeERS8_ @207
    _ZNKSt12_Vector_baseIN10gameEngine11RenderBatchESaIS1_EE19_M_get_Tp_allocatorEv @208
    _ZNKSt12_Vector_baseIN10gameEngine6vertexESaIS1_EE19_M_get_Tp_allocatorEv @209
    _ZNKSt12_Vector_baseIPN10gameEngine5glyphESaIS2_EE19_M_get_Tp_allocatorEv @210
    _ZNKSt12_Vector_baseIhSaIhEE19_M_get_Tp_allocatorEv @211
    _ZNKSt12_Vector_baseImSaImEE19_M_get_Tp_allocatorEv @212
    _ZNKSt13move_iteratorIPN10gameEngine11RenderBatchEE4baseEv @213
    _ZNKSt13move_iteratorIPN10gameEngine11RenderBatchEEdeEv @214
    _ZNKSt13move_iteratorIPN10gameEngine6vertexEE4baseEv @215
    _ZNKSt13move_iteratorIPPN10gameEngine5glyphEE4baseEv @216
    _ZNKSt13move_iteratorIPhE4baseEv @217
    _ZNKSt13move_iteratorIPmE4baseEv @218
    _ZNKSt17_Rb_tree_iteratorISt4pairIKSsN10gameEngine9GLtextureEEEeqERKS5_ @219
    _ZNKSt17_Rb_tree_iteratorISt4pairIKSsN10gameEngine9GLtextureEEEptEv @220
    _ZNKSt17_Temporary_bufferIN9__gnu_cxx17__normal_iteratorIPPN10gameEngine5glyphESt6vectorIS4_SaIS4_EEEES4_E4sizeEv @221
    _ZNKSt4fposIiEcvxEv @222
    _ZNKSt4hashIjEclEj @223
    _ZNKSt4lessISsEclERKSsS2_ @224
    _ZNKSt6vectorIN10gameEngine11RenderBatchESaIS1_EE12_M_check_lenEjPKc @225
    _ZNKSt6vectorIN10gameEngine11RenderBatchESaIS1_EE4sizeEv @226
    _ZNKSt6vectorIN10gameEngine11RenderBatchESaIS1_EE8max_sizeEv @227
    _ZNKSt6vectorIN10gameEngine6vertexESaIS1_EE12_M_check_lenEjPKc @228
    _ZNKSt6vectorIN10gameEngine6vertexESaIS1_EE4sizeEv @229
    _ZNKSt6vectorIN10gameEngine6vertexESaIS1_EE8max_sizeEv @230
    _ZNKSt6vectorIPN10gameEngine5glyphESaIS2_EE12_M_check_lenEjPKc @231
    _ZNKSt6vectorIPN10gameEngine5glyphESaIS2_EE3endEv @232
    _ZNKSt6vectorIPN10gameEngine5glyphESaIS2_EE4sizeEv @233
    _ZNKSt6vectorIPN10gameEngine5glyphESaIS2_EE5beginEv @234
    _ZNKSt6vectorIPN10gameEngine5glyphESaIS2_EE5emptyEv @235
    _ZNKSt6vectorIPN10gameEngine5glyphESaIS2_EE8max_sizeEv @236
    _ZNKSt6vectorIhSaIhEE12_M_check_lenEjPKc @237
    _ZNKSt6vectorIhSaIhEE3endEv @238
    _ZNKSt6vectorIhSaIhEE4sizeEv @239
    _ZNKSt6vectorIhSaIhEE5beginEv @240
    _ZNKSt6vectorIhSaIhEE5emptyEv @241
    _ZNKSt6vectorIhSaIhEE8max_sizeEv @242
    _ZNKSt6vectorIhSaIhEEixEj @243
    _ZNKSt6vectorImSaImEE12_M_check_lenEjPKc @244
    _ZNKSt6vectorImSaImEE4sizeEv @245
    _ZNKSt6vectorImSaImEE8max_sizeEv @246
    _ZNKSt6vectorImSaImEEixEj @247
    _ZNKSt8__detail10_Hash_nodeISt4pairIKjbELb0EE7_M_nextEv @248
    _ZNKSt8__detail10_Select1stclIRKSt4pairIKjbEEEDTcl3getILi0EEcl7forwardIT_Efp_EEEOS7_ @249
    _ZNKSt8__detail10_Select1stclIRSt4pairIKjbEEEDTcl3getILi0EEcl7forwardIT_Efp_EEEOS6_ @250
    _ZNKSt8__detail14_Node_iteratorISt4pairIKjbELb0ELb0EEptEv @251
    _ZNKSt8__detail15_Hash_code_baseIjSt4pairIKjbENS_10_Select1stESt4hashIjENS_18_Mod_range_hashingENS_20_Default_ranged_hashELb0EE10_M_extractEv @252
    _ZNKSt8__detail15_Hash_code_baseIjSt4pairIKjbENS_10_Select1stESt4hashIjENS_18_Mod_range_hashingENS_20_Default_ranged_hashELb0EE12_M_hash_codeERS2_ @253
    _ZNKSt8__detail15_Hash_code_baseIjSt4pairIKjbENS_10_Select1stESt4hashIjENS_18_Mod_range_hashingENS_20_Default_ranged_hashELb0EE13_M_store_codeEPNS_10_Hash_nodeIS3_Lb0EEEj @254
    _ZNKSt8__detail15_Hash_code_baseIjSt4pairIKjbENS_10_Select1stESt4hashIjENS_18_Mod_range_hashingENS_20_Default_ranged_hashELb0EE15_M_bucket_indexEPKNS_10_Hash_nodeIS3_Lb0EEEj @255
    _ZNKSt8__detail15_Hash_code_baseIjSt4pairIKjbENS_10_Select1stESt4hashIjENS_18_Mod_range_hashingENS_20_Default_ranged_hashELb0EE15_M_bucket_indexERS2_jj @256
    _ZNKSt8__detail15_Hash_code_baseIjSt4pairIKjbENS_10_Select1stESt4hashIjENS_18_Mod_range_hashingENS_20_Default_ranged_hashELb0EE5_M_h1Ev @257
    _ZNKSt8__detail15_Hash_code_baseIjSt4pairIKjbENS_10_Select1stESt4hashIjENS_18_Mod_range_hashingENS_20_Default_ranged_hashELb0EE5_M_h2Ev @258
    _ZNKSt8__detail15_Hashtable_baseIjSt4pairIKjbENS_10_Select1stESt8equal_toIjESt4hashIjENS_18_Mod_range_hashingENS_20_Default_ranged_hashENS_17_Hashtable_traitsILb0ELb0ELb1EEEE5_M_eqEv @259
    _ZNKSt8__detail15_Hashtable_baseIjSt4pairIKjbENS_10_Select1stESt8equal_toIjESt4hashIjENS_18_Mod_range_hashingENS_20_Default_ranged_hashENS_17_Hashtable_traitsILb0ELb0ELb1EEEE9_M_equalsERS2_jPNS_10_Hash_nodeIS3_Lb0EEE @260
    _ZNKSt8__detail18_Mod_range_hashingclEjj @261
    _ZNKSt8__detail20_Prime_rehash_policy8_M_stateEv @262
    _ZNKSt8equal_toIjEclERKjS2_ @263
    _ZNSaIN10gameEngine11RenderBatchEEC2Ev @264
    _ZNSaIN10gameEngine11RenderBatchEED2Ev @265
    _ZNSaIN10gameEngine6vertexEEC2Ev @266
    _ZNSaIN10gameEngine6vertexEED2Ev @267
    _ZNSaINSt8__detail10_Hash_nodeISt4pairIKjbELb0EEEEC2IS3_EERKSaIT_E @268
    _ZNSaINSt8__detail10_Hash_nodeISt4pairIKjbELb0EEEED2Ev @269
    _ZNSaIPN10gameEngine5glyphEEC2Ev @270
    _ZNSaIPN10gameEngine5glyphEED2Ev @271
    _ZNSaIPNSt8__detail15_Hash_node_baseEEC1INS_10_Hash_nodeISt4pairIKjbELb0EEEEERKSaIT_E @272
    _ZNSaIPNSt8__detail15_Hash_node_baseEED1Ev @273
    _ZNSaISt13_Rb_tree_nodeISt4pairIKSsN10gameEngine9GLtextureEEEEC2Ev @274
    _ZNSaISt13_Rb_tree_nodeISt4pairIKSsN10gameEngine9GLtextureEEEED2Ev @275
    _ZNSaISt4pairIKjbEEC1Ev @276
    _ZNSaISt4pairIKjbEED1Ev @277
    _ZNSaIhEC1ERKS_ @278
    _ZNSaIhEC1Ev @279
    _ZNSaIhEC2ERKS_ @280
    _ZNSaIhEC2Ev @281
    _ZNSaIhED1Ev @282
    _ZNSaIhED2Ev @283
    _ZNSaImEC1Ev @284
    _ZNSaImEC2ERKS_ @285
    _ZNSaImEC2Ev @286
    _ZNSaImED1Ev @287
    _ZNSaImED2Ev @288
    _ZNSt10_HashtableIjSt4pairIKjbESaIS2_ENSt8__detail10_Select1stESt8equal_toIjESt4hashIjENS4_18_Mod_range_hashingENS4_20_Default_ranged_hashENS4_20_Prime_rehash_policyENS4_17_Hashtable_traitsILb0ELb0ELb1EEEE13_M_rehash_auxEjSt17integral_constantIbLb1EE @289
    _ZNSt10_HashtableIjSt4pairIKjbESaIS2_ENSt8__detail10_Select1stESt8equal_toIjESt4hashIjENS4_18_Mod_range_hashingENS4_20_Default_ranged_hashENS4_20_Prime_rehash_policyENS4_17_Hashtable_traitsILb0ELb0ELb1EEEE15_M_before_beginEv @290
    _ZNSt10_HashtableIjSt4pairIKjbESaIS2_ENSt8__detail10_Select1stESt8equal_toIjESt4hashIjENS4_18_Mod_range_hashingENS4_20_Default_ranged_hashENS4_20_Prime_rehash_policyENS4_17_Hashtable_traitsILb0ELb0ELb1EEEE16_M_allocate_nodeIIRKSt21piecewise_construct_tSt5tupleIIRS1_EESK_IIEEEEEPNS4_10_Hash_nodeIS2_Lb0EEEDpOT_ @291
    _ZNSt10_HashtableIjSt4pairIKjbESaIS2_ENSt8__detail10_Select1stESt8equal_toIjESt4hashIjENS4_18_Mod_range_hashingENS4_20_Default_ranged_hashENS4_20_Prime_rehash_policyENS4_17_Hashtable_traitsILb0ELb0ELb1EEEE17_M_node_allocatorEv @292
    _ZNSt10_HashtableIjSt4pairIKjbESaIS2_ENSt8__detail10_Select1stESt8equal_toIjESt4hashIjENS4_18_Mod_range_hashingENS4_20_Default_ranged_hashENS4_20_Prime_rehash_policyENS4_17_Hashtable_traitsILb0ELb0ELb1EEEE18_M_deallocate_nodeEPNS4_10_Hash_nodeIS2_Lb0EEE @293
    _ZNSt10_HashtableIjSt4pairIKjbESaIS2_ENSt8__detail10_Select1stESt8equal_toIjESt4hashIjENS4_18_Mod_range_hashingENS4_20_Default_ranged_hashENS4_20_Prime_rehash_policyENS4_17_Hashtable_traitsILb0ELb0ELb1EEEE19_M_allocate_bucketsEj @294
    _ZNSt10_HashtableIjSt4pairIKjbESaIS2_ENSt8__detail10_Select1stESt8equal_toIjESt4hashIjENS4_18_Mod_range_hashingENS4_20_Default_ranged_hashENS4_20_Prime_rehash_policyENS4_17_Hashtable_traitsILb0ELb0ELb1EEEE19_M_deallocate_nodesEPNS4_10_Hash_nodeIS2_Lb0EEE @295
    _ZNSt10_HashtableIjSt4pairIKjbESaIS2_ENSt8__detail10_Select1stESt8equal_toIjESt4hashIjENS4_18_Mod_range_hashingENS4_20_Default_ranged_hashENS4_20_Prime_rehash_policyENS4_17_Hashtable_traitsILb0ELb0ELb1EEEE21_M_deallocate_bucketsEPPNS4_15_Hash_node_baseEj @296
    _ZNSt10_HashtableIjSt4pairIKjbESaIS2_ENSt8__detail10_Select1stESt8equal_toIjESt4hashIjENS4_18_Mod_range_hashingENS4_20_Default_ranged_hashENS4_20_Prime_rehash_policyENS4_17_Hashtable_traitsILb0ELb0ELb1EEEE21_M_insert_unique_nodeEjjPNS4_10_Hash_nodeIS2_Lb0EEE @297
    _ZNSt10_HashtableIjSt4pairIKjbESaIS2_ENSt8__detail10_Select1stESt8equal_toIjESt4hashIjENS4_18_Mod_range_hashingENS4_20_Default_ranged_hashENS4_20_Prime_rehash_policyENS4_17_Hashtable_traitsILb0ELb0ELb1EEEE22_M_insert_bucket_beginEjPNS4_10_Hash_nodeIS2_Lb0EEE @298
    _ZNSt10_HashtableIjSt4pairIKjbESaIS2_ENSt8__detail10_Select1stESt8equal_toIjESt4hashIjENS4_18_Mod_range_hashingENS4_20_Default_ranged_hashENS4_20_Prime_rehash_policyENS4_17_Hashtable_traitsILb0ELb0ELb1EEEE3endEv @299
    _ZNSt10_HashtableIjSt4pairIKjbESaIS2_ENSt8__detail10_Select1stESt8equal_toIjESt4hashIjENS4_18_Mod_range_hashingENS4_20_Default_ranged_hashENS4_20_Prime_rehash_policyENS4_17_Hashtable_traitsILb0ELb0ELb1EEEE4findERS1_ @300
    _ZNSt10_HashtableIjSt4pairIKjbESaIS2_ENSt8__detail10_Select1stESt8equal_toIjESt4hashIjENS4_18_Mod_range_hashingENS4_20_Default_ranged_hashENS4_20_Prime_rehash_policyENS4_17_Hashtable_traitsILb0ELb0ELb1EEEE5clearEv @301
    _ZNSt10_HashtableIjSt4pairIKjbESaIS2_ENSt8__detail10_Select1stESt8equal_toIjESt4hashIjENS4_18_Mod_range_hashingENS4_20_Default_ranged_hashENS4_20_Prime_rehash_policyENS4_17_Hashtable_traitsILb0ELb0ELb1EEEE9_M_rehashEjRS1_ @302
    _ZNSt10_HashtableIjSt4pairIKjbESaIS2_ENSt8__detail10_Select1stESt8equal_toIjESt4hashIjENS4_18_Mod_range_hashingENS4_20_Default_ranged_hashENS4_20_Prime_rehash_policyENS4_17_Hashtable_traitsILb0ELb0ELb1EEEEC1EjRKS9_RKS7_RKS3_ @303
    _ZNSt10_HashtableIjSt4pairIKjbESaIS2_ENSt8__detail10_Select1stESt8equal_toIjESt4hashIjENS4_18_Mod_range_hashingENS4_20_Default_ranged_hashENS4_20_Prime_rehash_policyENS4_17_Hashtable_traitsILb0ELb0ELb1EEEEC1EjRKS9_RKSA_RKSB_RKS7_RKS5_RKS3_ @304
    _ZNSt10_HashtableIjSt4pairIKjbESaIS2_ENSt8__detail10_Select1stESt8equal_toIjESt4hashIjENS4_18_Mod_range_hashingENS4_20_Default_ranged_hashENS4_20_Prime_rehash_policyENS4_17_Hashtable_traitsILb0ELb0ELb1EEEED1Ev @305
    _ZNSt10_Head_baseILj0ERKjLb0EE7_M_headERS2_ @306
    _ZNSt10_Head_baseILj0ERKjLb0EEC2ES1_ @307
    _ZNSt10_Iter_baseIN9__gnu_cxx17__normal_iteratorIPKhSt6vectorIhSaIhEEEELb0EE7_S_baseES7_ @308
    _ZNSt10_Iter_baseIN9__gnu_cxx17__normal_iteratorIPKhSt6vectorIhSaIhEEEELb1EE7_S_baseES7_ @309
    _ZNSt10_Iter_baseIN9__gnu_cxx17__normal_iteratorIPPN10gameEngine5glyphESt6vectorIS4_SaIS4_EEEELb0EE7_S_baseES9_ @310
    _ZNSt10_Iter_baseIN9__gnu_cxx17__normal_iteratorIPPN10gameEngine5glyphESt6vectorIS4_SaIS4_EEEELb1EE7_S_baseES9_ @311
    _ZNSt10_Iter_baseIN9__gnu_cxx17__normal_iteratorIPhSt6vectorIhSaIhEEEELb1EE7_S_baseES6_ @312
    _ZNSt10_Iter_baseIPKhLb0EE7_S_baseES1_ @313
    _ZNSt10_Iter_baseIPN10gameEngine6vertexELb0EE7_S_baseES2_ @314
    _ZNSt10_Iter_baseIPPN10gameEngine5glyphELb0EE7_S_baseES3_ @315
    _ZNSt10_Iter_baseIPcLb0EE7_S_baseES0_ @316
    _ZNSt10_Iter_baseIPhLb0EE7_S_baseES0_ @317
    _ZNSt10_Iter_baseIPmLb0EE7_S_baseES0_ @318
    _ZNSt10_Iter_baseISt13move_iteratorIPN10gameEngine6vertexEELb1EE7_S_baseES4_ @319
    _ZNSt10_Iter_baseISt13move_iteratorIPPN10gameEngine5glyphEELb1EE7_S_baseES5_ @320
    _ZNSt10_Iter_baseISt13move_iteratorIPhELb1EE7_S_baseES2_ @321
    _ZNSt10_Iter_baseISt13move_iteratorIPmELb1EE7_S_baseES2_ @322
    _ZNSt10__pair_getILj0EE11__const_getIKjbEERKT_RKSt4pairIS3_T0_E @323
    _ZNSt10__pair_getILj0EE5__getIKjbEERT_RSt4pairIS3_T0_E @324
    _ZNSt11_Tuple_implILj0EIRKjEE7_M_headERS2_ @325
    _ZNSt11_Tuple_implILj0EIRKjEE7_M_tailERS2_ @326
    _ZNSt11_Tuple_implILj0EIRKjEEC2EOS2_ @327
    _ZNSt11_Tuple_implILj0EIRKjEEC2ES1_ @328
    _ZNSt11_Tuple_implILj1EIEEC2Ev @329
    _ZNSt11__copy_moveILb0ELb1ESt26random_access_iterator_tagE8__copy_mIhEEPT_PKS3_S6_S4_ @330
    _ZNSt11__copy_moveILb1ELb1ESt26random_access_iterator_tagE8__copy_mIN10gameEngine6vertexEEEPT_PKS5_S8_S6_ @331
    _ZNSt11__copy_moveILb1ELb1ESt26random_access_iterator_tagE8__copy_mIPN10gameEngine5glyphEEEPT_PKS6_S9_S7_ @332
    _ZNSt11__copy_moveILb1ELb1ESt26random_access_iterator_tagE8__copy_mIhEEPT_PKS3_S6_S4_ @333
    _ZNSt11__copy_moveILb1ELb1ESt26random_access_iterator_tagE8__copy_mImEEPT_PKS3_S6_S4_ @334
    _ZNSt11char_traitsIcE6lengthEPKc @335
    _ZNSt12_Destroy_auxILb1EE9__destroyIPN10gameEngine11RenderBatchEEEvT_S5_ @336
    _ZNSt12_Destroy_auxILb1EE9__destroyIPN10gameEngine6vertexEEEvT_S5_ @337
    _ZNSt12_Destroy_auxILb1EE9__destroyIPPN10gameEngine5glyphEEEvT_S6_ @338
    _ZNSt12_Destroy_auxILb1EE9__destroyIPcEEvT_S3_ @339
    _ZNSt12_Destroy_auxILb1EE9__destroyIPhEEvT_S3_ @340
    _ZNSt12_Destroy_auxILb1EE9__destroyIPmEEvT_S3_ @341
    _ZNSt12_Vector_baseIN10gameEngine11RenderBatchESaIS1_EE11_M_allocateEj @342
    _ZNSt12_Vector_baseIN10gameEngine11RenderBatchESaIS1_EE12_Vector_implC1Ev @343
    _ZNSt12_Vector_baseIN10gameEngine11RenderBatchESaIS1_EE12_Vector_implD1Ev @344
    _ZNSt12_Vector_baseIN10gameEngine11RenderBatchESaIS1_EE13_M_deallocateEPS1_j @345
    _ZNSt12_Vector_baseIN10gameEngine11RenderBatchESaIS1_EE19_M_get_Tp_allocatorEv @346
    _ZNSt12_Vector_baseIN10gameEngine11RenderBatchESaIS1_EEC2Ev @347
    _ZNSt12_Vector_baseIN10gameEngine11RenderBatchESaIS1_EED2Ev @348
    _ZNSt12_Vector_baseIN10gameEngine6vertexESaIS1_EE11_M_allocateEj @349
    _ZNSt12_Vector_baseIN10gameEngine6vertexESaIS1_EE12_Vector_implC1Ev @350
    _ZNSt12_Vector_baseIN10gameEngine6vertexESaIS1_EE12_Vector_implD1Ev @351
    _ZNSt12_Vector_baseIN10gameEngine6vertexESaIS1_EE13_M_deallocateEPS1_j @352
    _ZNSt12_Vector_baseIN10gameEngine6vertexESaIS1_EE19_M_get_Tp_allocatorEv @353
    _ZNSt12_Vector_baseIN10gameEngine6vertexESaIS1_EEC2Ev @354
    _ZNSt12_Vector_baseIN10gameEngine6vertexESaIS1_EED2Ev @355
    _ZNSt12_Vector_baseIPN10gameEngine5glyphESaIS2_EE11_M_allocateEj @356
    _ZNSt12_Vector_baseIPN10gameEngine5glyphESaIS2_EE12_Vector_implC1Ev @357
    _ZNSt12_Vector_baseIPN10gameEngine5glyphESaIS2_EE12_Vector_implD1Ev @358
    _ZNSt12_Vector_baseIPN10gameEngine5glyphESaIS2_EE13_M_deallocateEPS2_j @359
    _ZNSt12_Vector_baseIPN10gameEngine5glyphESaIS2_EE19_M_get_Tp_allocatorEv @360
    _ZNSt12_Vector_baseIPN10gameEngine5glyphESaIS2_EEC2Ev @361
    _ZNSt12_Vector_baseIPN10gameEngine5glyphESaIS2_EED2Ev @362
    _ZNSt12_Vector_baseIcSaIcEE11_M_allocateEj @363
    _ZNSt12_Vector_baseIcSaIcEE12_Vector_implC1ERKS0_ @364
    _ZNSt12_Vector_baseIcSaIcEE12_Vector_implD1Ev @365
    _ZNSt12_Vector_baseIcSaIcEE13_M_deallocateEPcj @366
    _ZNSt12_Vector_baseIcSaIcEE17_M_create_storageEj @367
    _ZNSt12_Vector_baseIcSaIcEE19_M_get_Tp_allocatorEv @368
    _ZNSt12_Vector_baseIcSaIcEEC2EjRKS0_ @369
    _ZNSt12_Vector_baseIcSaIcEED2Ev @370
    _ZNSt12_Vector_baseIhSaIhEE11_M_allocateEj @371
    _ZNSt12_Vector_baseIhSaIhEE12_Vector_implC1ERKS0_ @372
    _ZNSt12_Vector_baseIhSaIhEE12_Vector_implC1Ev @373
    _ZNSt12_Vector_baseIhSaIhEE12_Vector_implD1Ev @374
    _ZNSt12_Vector_baseIhSaIhEE13_M_deallocateEPhj @375
    _ZNSt12_Vector_baseIhSaIhEE17_M_create_storageEj @376
    _ZNSt12_Vector_baseIhSaIhEE19_M_get_Tp_allocatorEv @377
    _ZNSt12_Vector_baseIhSaIhEEC2EjRKS0_ @378
    _ZNSt12_Vector_baseIhSaIhEEC2Ev @379
    _ZNSt12_Vector_baseIhSaIhEED2Ev @380
    _ZNSt12_Vector_baseImSaImEE11_M_allocateEj @381
    _ZNSt12_Vector_baseImSaImEE12_Vector_implC1ERKS0_ @382
    _ZNSt12_Vector_baseImSaImEE12_Vector_implC1Ev @383
    _ZNSt12_Vector_baseImSaImEE12_Vector_implD1Ev @384
    _ZNSt12_Vector_baseImSaImEE13_M_deallocateEPmj @385
    _ZNSt12_Vector_baseImSaImEE17_M_create_storageEj @386
    _ZNSt12_Vector_baseImSaImEE19_M_get_Tp_allocatorEv @387
    _ZNSt12_Vector_baseImSaImEEC2EjRKS0_ @388
    _ZNSt12_Vector_baseImSaImEEC2Ev @389
    _ZNSt12_Vector_baseImSaImEED2Ev @390
    _ZNSt13_Rb_tree_nodeISt4pairIKSsN10gameEngine9GLtextureEEEC1IIS0_ISsS3_EEEEDpOT_ @391
    _ZNSt13_Rb_tree_nodeISt4pairIKSsN10gameEngine9GLtextureEEED1Ev @392
    _ZNSt13move_iteratorIPN10gameEngine11RenderBatchEEC1ES2_ @393
    _ZNSt13move_iteratorIPN10gameEngine11RenderBatchEEppEv @394
    _ZNSt13move_iteratorIPN10gameEngine6vertexEEC1ES2_ @395
    _ZNSt13move_iteratorIPPN10gameEngine5glyphEEC1ES3_ @396
    _ZNSt13move_iteratorIPhEC1ES0_ @397
    _ZNSt13move_iteratorIPmEC1ES0_ @398
    _ZNSt13unordered_mapIjbSt4hashIjESt8equal_toIjESaISt4pairIKjbEEE3endEv @399
    _ZNSt13unordered_mapIjbSt4hashIjESt8equal_toIjESaISt4pairIKjbEEE4findERS5_ @400
    _ZNSt13unordered_mapIjbSt4hashIjESt8equal_toIjESaISt4pairIKjbEEEC1EjRKS1_RKS3_RKS7_ @401
    _ZNSt13unordered_mapIjbSt4hashIjESt8equal_toIjESaISt4pairIKjbEEED1Ev @402
    _ZNSt13unordered_mapIjbSt4hashIjESt8equal_toIjESaISt4pairIKjbEEEixERS5_ @403
    _ZNSt16allocator_traitsISaIN10gameEngine11RenderBatchEEE10_S_destroyIS1_EENSt9enable_ifIXsrNS3_16__destroy_helperIT_EE5valueEvE4typeERS2_PS7_ @404
    _ZNSt16allocator_traitsISaIN10gameEngine11RenderBatchEEE11_S_max_sizeIKS2_EENSt9enable_ifIXsrNS3_16__maxsize_helperIT_EE5valueEjE4typeERS8_ @405
    _ZNSt16allocator_traitsISaIN10gameEngine11RenderBatchEEE12_S_constructIS1_IRiiRjEEENSt9enable_ifIXsrNS3_18__construct_helperIT_IDpT0_EEE5valueEvE4typeERS2_PS9_DpOSA_ @406
    _ZNSt16allocator_traitsISaIN10gameEngine11RenderBatchEEE7destroyIS1_EEvRS2_PT_ @407
    _ZNSt16allocator_traitsISaIN10gameEngine11RenderBatchEEE8max_sizeERKS2_ @408
    _ZNSt16allocator_traitsISaIN10gameEngine11RenderBatchEEE9constructIS1_IRiiRjEEEDTcl12_S_constructfp_fp0_spcl7forwardIT0_Efp1_EEERS2_PT_DpOS7_ @409
    _ZNSt16allocator_traitsISaIN10gameEngine6vertexEEE11_S_max_sizeIKS2_EENSt9enable_ifIXsrNS3_16__maxsize_helperIT_EE5valueEjE4typeERS8_ @410
    _ZNSt16allocator_traitsISaIN10gameEngine6vertexEEE8max_sizeERKS2_ @411
    _ZNSt16allocator_traitsISaIPN10gameEngine5glyphEEE10_S_destroyIS2_EENSt9enable_ifIXsrNS4_16__destroy_helperIT_EE5valueEvE4typeERS3_PS8_ @412
    _ZNSt16allocator_traitsISaIPN10gameEngine5glyphEEE11_S_max_sizeIKS3_EENSt9enable_ifIXsrNS4_16__maxsize_helperIT_EE5valueEjE4typeERS9_ @413
    _ZNSt16allocator_traitsISaIPN10gameEngine5glyphEEE12_S_constructIS2_IRKS2_EEENSt9enable_ifIXsrNS4_18__construct_helperIT_IDpT0_EEE5valueEvE4typeERS3_PSA_DpOSB_ @414
    _ZNSt16allocator_traitsISaIPN10gameEngine5glyphEEE7destroyIS2_EEvRS3_PT_ @415
    _ZNSt16allocator_traitsISaIPN10gameEngine5glyphEEE8max_sizeERKS3_ @416
    _ZNSt16allocator_traitsISaIPN10gameEngine5glyphEEE9constructIS2_IRKS2_EEEDTcl12_S_constructfp_fp0_spcl7forwardIT0_Efp1_EEERS3_PT_DpOS8_ @417
    _ZNSt16allocator_traitsISaISt13_Rb_tree_nodeISt4pairIKSsN10gameEngine9GLtextureEEEEE12_S_constructIS6_IS1_ISsS4_EEEENSt9enable_ifIXsrNS8_18__construct_helperIT_IDpT0_EEE5valueEvE4typeERS7_PSD_DpOSE_ @418
    _ZNSt16allocator_traitsISaISt13_Rb_tree_nodeISt4pairIKSsN10gameEngine9GLtextureEEEEE9constructIS6_IS1_ISsS4_EEEEDTcl12_S_constructfp_fp0_spcl7forwardIT0_Efp1_EEERS7_PT_DpOSB_ @419
    _ZNSt16allocator_traitsISaIhEE11_S_max_sizeIKS0_EENSt9enable_ifIXsrNS1_16__maxsize_helperIT_EE5valueEjE4typeERS6_ @420
    _ZNSt16allocator_traitsISaIhEE37select_on_container_copy_constructionERKS0_ @421
    _ZNSt16allocator_traitsISaIhEE8max_sizeERKS0_ @422
    _ZNSt16allocator_traitsISaIhEE9_S_selectIKS0_EENSt9enable_ifIXntsrNS1_15__select_helperIT_EE5valueES6_E4typeERS6_ @423
    _ZNSt16allocator_traitsISaImEE11_S_max_sizeIKS0_EENSt9enable_ifIXsrNS1_16__maxsize_helperIT_EE5valueEjE4typeERS6_ @424
    _ZNSt16allocator_traitsISaImEE8max_sizeERKS0_ @425
    _ZNSt17_Rb_tree_iteratorISt4pairIKSsN10gameEngine9GLtextureEEEC1EPSt13_Rb_tree_nodeIS4_E @426
    _ZNSt17_Rb_tree_iteratorISt4pairIKSsN10gameEngine9GLtextureEEEmmEv @427
    _ZNSt17_Temporary_bufferIN9__gnu_cxx17__normal_iteratorIPPN10gameEngine5glyphESt6vectorIS4_SaIS4_EEEES4_E5beginEv @428
    _ZNSt17_Temporary_bufferIN9__gnu_cxx17__normal_iteratorIPPN10gameEngine5glyphESt6vectorIS4_SaIS4_EEEES4_EC1ES9_S9_ @429
    _ZNSt17_Temporary_bufferIN9__gnu_cxx17__normal_iteratorIPPN10gameEngine5glyphESt6vectorIS4_SaIS4_EEEES4_ED1Ev @430
    _ZNSt17__allow_copy_consILb1EEC2Ev @431
    _ZNSt20__copy_move_backwardILb1ELb1ESt26random_access_iterator_tagE13__copy_move_bIPN10gameEngine5glyphEEEPT_PKS6_S9_S7_ @432
    _ZNSt20__copy_move_backwardILb1ELb1ESt26random_access_iterator_tagE13__copy_move_bIhEEPT_PKS3_S6_S4_ @433
    _ZNSt20__copy_move_backwardILb1ELb1ESt26random_access_iterator_tagE13__copy_move_bImEEPT_PKS3_S6_S4_ @434
    _ZNSt20__uninitialized_copyILb0EE13__uninit_copyISt13move_iteratorIPN10gameEngine11RenderBatchEES5_EET0_T_S8_S7_ @435
    _ZNSt20__uninitialized_copyILb1EE13__uninit_copyIN9__gnu_cxx17__normal_iteratorIPKhSt6vectorIhSaIhEEEEPhEET0_T_SC_SB_ @436
    _ZNSt20__uninitialized_copyILb1EE13__uninit_copyIPKhPhEET0_T_S6_S5_ @437
    _ZNSt20__uninitialized_copyILb1EE13__uninit_copyISt13move_iteratorIPN10gameEngine6vertexEES5_EET0_T_S8_S7_ @438
    _ZNSt20__uninitialized_copyILb1EE13__uninit_copyISt13move_iteratorIPPN10gameEngine5glyphEES6_EET0_T_S9_S8_ @439
    _ZNSt20__uninitialized_copyILb1EE13__uninit_copyISt13move_iteratorIPhES3_EET0_T_S6_S5_ @440
    _ZNSt20__uninitialized_copyILb1EE13__uninit_copyISt13move_iteratorIPmES3_EET0_T_S6_S5_ @441
    _ZNSt22__uninitialized_fill_nILb1EE15__uninit_fill_nIPmjmEEvT_T0_RKT1_ @442
    _ZNSt27__uninitialized_default_n_1ILb1EE18__uninit_default_nIPN10gameEngine6vertexEjEEvT_T0_ @443
    _ZNSt27__uninitialized_default_n_1ILb1EE18__uninit_default_nIPcjEEvT_T0_ @444
    _ZNSt27__uninitialized_default_n_1ILb1EE18__uninit_default_nIPhjEEvT_T0_ @445
    _ZNSt27__uninitialized_default_n_1ILb1EE18__uninit_default_nIPmjEEvT_T0_ @446
    _ZNSt38__uninitialized_construct_buf_dispatchILb1EE5__ucrIPPN10gameEngine5glyphEN9__gnu_cxx17__normal_iteratorIS5_St6vectorIS4_SaIS4_EEEEEEvT_SC_T0_ @447
    _ZNSt3mapISsN10gameEngine9GLtextureESt4lessISsESaISt4pairIKSsS1_EEE3endEv @448
    _ZNSt3mapISsN10gameEngine9GLtextureESt4lessISsESaISt4pairIKSsS1_EEE4findERS5_ @449
    _ZNSt3mapISsN10gameEngine9GLtextureESt4lessISsESaISt4pairIKSsS1_EEE6insertIS4_ISsS1_EvEES4_ISt17_Rb_tree_iteratorIS6_EbEOT_ @450
    _ZNSt3mapISsN10gameEngine9GLtextureESt4lessISsESaISt4pairIKSsS1_EEEC1Ev @451
    _ZNSt3mapISsN10gameEngine9GLtextureESt4lessISsESaISt4pairIKSsS1_EEED1Ev @452
    _ZNSt4pairIKSsN10gameEngine9GLtextureEEC1ISsS2_vEEOS_IT_T0_E @453
    _ZNSt4pairIKSsN10gameEngine9GLtextureEED1Ev @454
    _ZNSt4pairIKjbEC1IIRS0_EIEEESt21piecewise_construct_tSt5tupleIIDpT_EES5_IIDpT0_EE @455
    _ZNSt4pairIKjbEC1IIRS0_EILj0EEIEIEEERSt5tupleIIDpT_EERS4_IIDpT1_EESt12_Index_tupleIIXspT0_EEESD_IIXspT2_EEE @456
    _ZNSt4pairIPPN10gameEngine5glyphEiEC1IRS3_RivEEOT_OT0_ @457
    _ZNSt4pairIPPN10gameEngine5glyphEiEC1IS3_ivEEOT_OT0_ @458
    _ZNSt4pairIPSt18_Rb_tree_node_baseS1_EC1IRPSt13_Rb_tree_nodeIS_IKSsN10gameEngine9GLtextureEEESB_vEEOT_OT0_ @459
    _ZNSt4pairIPSt18_Rb_tree_node_baseS1_EC1IRS1_vEEOT_RKS1_ @460
    _ZNSt4pairISsN10gameEngine9GLtextureEEC1IRSsRS1_vEEOT_OT0_ @461
    _ZNSt4pairISsN10gameEngine9GLtextureEED1Ev @462
    _ZNSt4pairISt17_Rb_tree_iteratorIS_IKSsN10gameEngine9GLtextureEEEbEC1IS5_bvEEOT_OT0_ @463
    _ZNSt5tupleIIRKjEEC1EOS2_ @464
    _ZNSt5tupleIIRKjEEC1ES1_ @465
    _ZNSt6vectorIN10gameEngine11RenderBatchESaIS1_EE12emplace_backIIRiiRjEEEvDpOT_ @466
    _ZNSt6vectorIN10gameEngine11RenderBatchESaIS1_EE15_M_erase_at_endEPS1_ @467
    _ZNSt6vectorIN10gameEngine11RenderBatchESaIS1_EE19_M_emplace_back_auxIIRiiRjEEEvDpOT_ @468
    _ZNSt6vectorIN10gameEngine11RenderBatchESaIS1_EE3endEv @469
    _ZNSt6vectorIN10gameEngine11RenderBatchESaIS1_EE4backEv @470
    _ZNSt6vectorIN10gameEngine11RenderBatchESaIS1_EE5clearEv @471
    _ZNSt6vectorIN10gameEngine11RenderBatchESaIS1_EEC1Ev @472
    _ZNSt6vectorIN10gameEngine11RenderBatchESaIS1_EED1Ev @473
    _ZNSt6vectorIN10gameEngine11RenderBatchESaIS1_EEixEj @474
    _ZNSt6vectorIN10gameEngine6vertexESaIS1_EE15_M_erase_at_endEPS1_ @475
    _ZNSt6vectorIN10gameEngine6vertexESaIS1_EE17_M_default_appendEj @476
    _ZNSt6vectorIN10gameEngine6vertexESaIS1_EE4dataEv @477
    _ZNSt6vectorIN10gameEngine6vertexESaIS1_EE5beginEv @478
    _ZNSt6vectorIN10gameEngine6vertexESaIS1_EE5frontEv @479
    _ZNSt6vectorIN10gameEngine6vertexESaIS1_EE6resizeEj @480
    _ZNSt6vectorIN10gameEngine6vertexESaIS1_EEC1Ev @481
    _ZNSt6vectorIN10gameEngine6vertexESaIS1_EED1Ev @482
    _ZNSt6vectorIN10gameEngine6vertexESaIS1_EEixEj @483
    _ZNSt6vectorIPN10gameEngine5glyphESaIS2_EE15_M_erase_at_endEPS2_ @484
    _ZNSt6vectorIPN10gameEngine5glyphESaIS2_EE19_M_emplace_back_auxIIRKS2_EEEvDpOT_ @485
    _ZNSt6vectorIPN10gameEngine5glyphESaIS2_EE3endEv @486
    _ZNSt6vectorIPN10gameEngine5glyphESaIS2_EE5beginEv @487
    _ZNSt6vectorIPN10gameEngine5glyphESaIS2_EE5clearEv @488
    _ZNSt6vectorIPN10gameEngine5glyphESaIS2_EE9push_backERKS2_ @489
    _ZNSt6vectorIPN10gameEngine5glyphESaIS2_EEC1Ev @490
    _ZNSt6vectorIPN10gameEngine5glyphESaIS2_EED1Ev @491
    _ZNSt6vectorIPN10gameEngine5glyphESaIS2_EEixEj @492
    _ZNSt6vectorIcSaIcEE21_M_default_initializeEj @493
    _ZNSt6vectorIcSaIcEEC1EjRKS0_ @494
    _ZNSt6vectorIcSaIcEED1Ev @495
    _ZNSt6vectorIcSaIcEEixEj @496
    _ZNSt6vectorIhSaIhEE15_M_erase_at_endEPh @497
    _ZNSt6vectorIhSaIhEE15_M_range_insertIPKhEEvN9__gnu_cxx17__normal_iteratorIPhS1_EET_S9_St20forward_iterator_tag @498
    _ZNSt6vectorIhSaIhEE17_M_default_appendEj @499
    _ZNSt6vectorIhSaIhEE18_M_insert_dispatchIPKhEEvN9__gnu_cxx17__normal_iteratorIPhS1_EET_S9_St12__false_type @500
    _ZNSt6vectorIhSaIhEE21_M_default_initializeEj @501
    _ZNSt6vectorIhSaIhEE3endEv @502
    _ZNSt6vectorIhSaIhEE6insertIPKhvEEvN9__gnu_cxx17__normal_iteratorIPhS1_EET_S9_ @503
    _ZNSt6vectorIhSaIhEE6resizeEj @504
    _ZNSt6vectorIhSaIhEEC1ERKS1_ @505
    _ZNSt6vectorIhSaIhEEC1EjRKS0_ @506
    _ZNSt6vectorIhSaIhEEC1Ev @507
    _ZNSt6vectorIhSaIhEED1Ev @508
    _ZNSt6vectorIhSaIhEEixEj @509
    _ZNSt6vectorImSaImEE14_M_fill_insertEN9__gnu_cxx17__normal_iteratorIPmS1_EEjRKm @510
    _ZNSt6vectorImSaImEE15_M_erase_at_endEPm @511
    _ZNSt6vectorImSaImEE18_M_fill_initializeEjRKm @512
    _ZNSt6vectorImSaImEE21_M_default_initializeEj @513
    _ZNSt6vectorImSaImEE3endEv @514
    _ZNSt6vectorImSaImEE5beginEv @515
    _ZNSt6vectorImSaImEE5clearEv @516
    _ZNSt6vectorImSaImEE6insertEN9__gnu_cxx17__normal_iteratorIPmS1_EEjRKm @517
    _ZNSt6vectorImSaImEE6resizeEjRKm @518
    _ZNSt6vectorImSaImEEC1EjRKS0_ @519
    _ZNSt6vectorImSaImEEC1EjRKmRKS0_ @520
    _ZNSt6vectorImSaImEEC1Ev @521
    _ZNSt6vectorImSaImEED1Ev @522
    _ZNSt6vectorImSaImEEixEj @523
    _ZNSt8_Rb_treeISsSt4pairIKSsN10gameEngine9GLtextureEESt10_Select1stIS4_ESt4lessISsESaIS4_EE10_M_insert_IS0_ISsS3_EEESt17_Rb_tree_iteratorIS4_EPSt18_Rb_tree_node_baseSG_OT_ @524
    _ZNSt8_Rb_treeISsSt4pairIKSsN10gameEngine9GLtextureEESt10_Select1stIS4_ESt4lessISsESaIS4_EE11_M_get_nodeEv @525
    _ZNSt8_Rb_treeISsSt4pairIKSsN10gameEngine9GLtextureEESt10_Select1stIS4_ESt4lessISsESaIS4_EE11_M_put_nodeEPSt13_Rb_tree_nodeIS4_E @526
    _ZNSt8_Rb_treeISsSt4pairIKSsN10gameEngine9GLtextureEESt10_Select1stIS4_ESt4lessISsESaIS4_EE13_Rb_tree_implIS8_Lb1EE13_M_initializeEv @527
    _ZNSt8_Rb_treeISsSt4pairIKSsN10gameEngine9GLtextureEESt10_Select1stIS4_ESt4lessISsESaIS4_EE13_Rb_tree_implIS8_Lb1EEC1Ev @528
    _ZNSt8_Rb_treeISsSt4pairIKSsN10gameEngine9GLtextureEESt10_Select1stIS4_ESt4lessISsESaIS4_EE13_Rb_tree_implIS8_Lb1EED1Ev @529
    _ZNSt8_Rb_treeISsSt4pairIKSsN10gameEngine9GLtextureEESt10_Select1stIS4_ESt4lessISsESaIS4_EE14_M_create_nodeIIS0_ISsS3_EEEEPSt13_Rb_tree_nodeIS4_EDpOT_ @530
    _ZNSt8_Rb_treeISsSt4pairIKSsN10gameEngine9GLtextureEESt10_Select1stIS4_ESt4lessISsESaIS4_EE14_M_lower_boundEPSt13_Rb_tree_nodeIS4_ESD_RS1_ @531
    _ZNSt8_Rb_treeISsSt4pairIKSsN10gameEngine9GLtextureEESt10_Select1stIS4_ESt4lessISsESaIS4_EE15_M_destroy_nodeEPSt13_Rb_tree_nodeIS4_E @532
    _ZNSt8_Rb_treeISsSt4pairIKSsN10gameEngine9GLtextureEESt10_Select1stIS4_ESt4lessISsESaIS4_EE16_M_insert_uniqueIS0_ISsS3_EEES0_ISt17_Rb_tree_iteratorIS4_EbEOT_ @533
    _ZNSt8_Rb_treeISsSt4pairIKSsN10gameEngine9GLtextureEESt10_Select1stIS4_ESt4lessISsESaIS4_EE21_M_get_Node_allocatorEv @534
    _ZNSt8_Rb_treeISsSt4pairIKSsN10gameEngine9GLtextureEESt10_Select1stIS4_ESt4lessISsESaIS4_EE24_M_get_insert_unique_posERS1_ @535
    _ZNSt8_Rb_treeISsSt4pairIKSsN10gameEngine9GLtextureEESt10_Select1stIS4_ESt4lessISsESaIS4_EE3endEv @536
    _ZNSt8_Rb_treeISsSt4pairIKSsN10gameEngine9GLtextureEESt10_Select1stIS4_ESt4lessISsESaIS4_EE4findERS1_ @537
    _ZNSt8_Rb_treeISsSt4pairIKSsN10gameEngine9GLtextureEESt10_Select1stIS4_ESt4lessISsESaIS4_EE5beginEv @538
    _ZNSt8_Rb_treeISsSt4pairIKSsN10gameEngine9GLtextureEESt10_Select1stIS4_ESt4lessISsESaIS4_EE6_M_endEv @539
    _ZNSt8_Rb_treeISsSt4pairIKSsN10gameEngine9GLtextureEESt10_Select1stIS4_ESt4lessISsESaIS4_EE6_S_keyEPKSt13_Rb_tree_nodeIS4_E @540
    _ZNSt8_Rb_treeISsSt4pairIKSsN10gameEngine9GLtextureEESt10_Select1stIS4_ESt4lessISsESaIS4_EE6_S_keyEPKSt18_Rb_tree_node_base @541
    _ZNSt8_Rb_treeISsSt4pairIKSsN10gameEngine9GLtextureEESt10_Select1stIS4_ESt4lessISsESaIS4_EE7_S_leftEPSt18_Rb_tree_node_base @542
    _ZNSt8_Rb_treeISsSt4pairIKSsN10gameEngine9GLtextureEESt10_Select1stIS4_ESt4lessISsESaIS4_EE8_M_beginEv @543
    _ZNSt8_Rb_treeISsSt4pairIKSsN10gameEngine9GLtextureEESt10_Select1stIS4_ESt4lessISsESaIS4_EE8_M_eraseEPSt13_Rb_tree_nodeIS4_E @544
    _ZNSt8_Rb_treeISsSt4pairIKSsN10gameEngine9GLtextureEESt10_Select1stIS4_ESt4lessISsESaIS4_EE8_S_rightEPSt18_Rb_tree_node_base @545
    _ZNSt8_Rb_treeISsSt4pairIKSsN10gameEngine9GLtextureEESt10_Select1stIS4_ESt4lessISsESaIS4_EE8_S_valueEPKSt13_Rb_tree_nodeIS4_E @546
    _ZNSt8_Rb_treeISsSt4pairIKSsN10gameEngine9GLtextureEESt10_Select1stIS4_ESt4lessISsESaIS4_EE8_S_valueEPKSt18_Rb_tree_node_base @547
    _ZNSt8_Rb_treeISsSt4pairIKSsN10gameEngine9GLtextureEESt10_Select1stIS4_ESt4lessISsESaIS4_EEC1Ev @548
    _ZNSt8_Rb_treeISsSt4pairIKSsN10gameEngine9GLtextureEESt10_Select1stIS4_ESt4lessISsESaIS4_EED1Ev @549
    _ZNSt8__detail10_Hash_nodeISt4pairIKjbELb0EEC1IIRKSt21piecewise_construct_tSt5tupleIIRS2_EES9_IIEEEEEDpOT_ @550
    _ZNSt8__detail12_Insert_baseIjSt4pairIKjbESaIS3_ENS_10_Select1stESt8equal_toIjESt4hashIjENS_18_Mod_range_hashingENS_20_Default_ranged_hashENS_20_Prime_rehash_policyENS_17_Hashtable_traitsILb0ELb0ELb1EEEEC2Ev @551
    _ZNSt8__detail13_Before_beginISaINS_10_Hash_nodeISt4pairIKjbELb0EEEEEC1IRKSaIS4_EEEOT_ @552
    _ZNSt8__detail13_Before_beginISaINS_10_Hash_nodeISt4pairIKjbELb0EEEEED1Ev @553
    _ZNSt8__detail13_Equal_helperIjSt4pairIKjbENS_10_Select1stESt8equal_toIjEjLb0EE9_S_equalsERKS6_RKS4_RS2_jPNS_10_Hash_nodeIS3_Lb0EEE @554
    _ZNSt8__detail14_Node_iteratorISt4pairIKjbELb0ELb0EEC1EPNS_10_Hash_nodeIS3_Lb0EEE @555
    _ZNSt8__detail15_Hash_code_baseIjSt4pairIKjbENS_10_Select1stESt4hashIjENS_18_Mod_range_hashingENS_20_Default_ranged_hashELb0EE10_M_extractEv @556
    _ZNSt8__detail15_Hash_code_baseIjSt4pairIKjbENS_10_Select1stESt4hashIjENS_18_Mod_range_hashingENS_20_Default_ranged_hashELb0EEC2ERKS4_RKS6_RKS7_RKS8_ @557
    _ZNSt8__detail15_Hash_node_baseC1Ev @558
    _ZNSt8__detail15_Hash_node_baseC2Ev @559
    _ZNSt8__detail15_Hashtable_baseIjSt4pairIKjbENS_10_Select1stESt8equal_toIjESt4hashIjENS_18_Mod_range_hashingENS_20_Default_ranged_hashENS_17_Hashtable_traitsILb0ELb0ELb1EEEEC2ERKS4_RKS8_RKS9_RKSA_RKS6_ @560
    _ZNSt8__detail19_Node_iterator_baseISt4pairIKjbELb0EEC2EPNS_10_Hash_nodeIS3_Lb0EEE @561
    _ZNSt8__detail20_Prime_rehash_policy8_M_resetEj @562
    _ZNSt8__detail20_Prime_rehash_policyC1Ef @563
    _ZNSt8__detail21_Hashtable_ebo_helperILi0ENS_10_Select1stELb1EE6_S_getERS2_ @564
    _ZNSt8__detail21_Hashtable_ebo_helperILi0ENS_10_Select1stELb1EE7_S_cgetERKS2_ @565
    _ZNSt8__detail21_Hashtable_ebo_helperILi0ENS_10_Select1stELb1EEC2ERKS1_ @566
    _ZNSt8__detail21_Hashtable_ebo_helperILi0ESt8equal_toIjELb1EE7_S_cgetERKS3_ @567
    _ZNSt8__detail21_Hashtable_ebo_helperILi0ESt8equal_toIjELb1EEC2ERKS2_ @568
    _ZNSt8__detail21_Hashtable_ebo_helperILi1ESt4hashIjELb1EE7_S_cgetERKS3_ @569
    _ZNSt8__detail21_Hashtable_ebo_helperILi1ESt4hashIjELb1EEC2ERKS2_ @570
    _ZNSt8__detail21_Hashtable_ebo_helperILi2ENS_18_Mod_range_hashingELb1EE7_S_cgetERKS2_ @571
    _ZNSt8__detail21_Hashtable_ebo_helperILi2ENS_18_Mod_range_hashingELb1EEC2ERKS1_ @572
    _ZNSt8__detail7_InsertIjSt4pairIKjbESaIS3_ENS_10_Select1stESt8equal_toIjESt4hashIjENS_18_Mod_range_hashingENS_20_Default_ranged_hashENS_20_Prime_rehash_policyENS_17_Hashtable_traitsILb0ELb0ELb1EEELb0ELb1EEC2Ev @573
    _ZNSt8__detail9_EqualityIjSt4pairIKjbESaIS3_ENS_10_Select1stESt8equal_toIjESt4hashIjENS_18_Mod_range_hashingENS_20_Default_ranged_hashENS_20_Prime_rehash_policyENS_17_Hashtable_traitsILb0ELb0ELb1EEELb1EEC2Ev @574
    _ZNSt8__detail9_Map_baseIjSt4pairIKjbESaIS3_ENS_10_Select1stESt8equal_toIjESt4hashIjENS_18_Mod_range_hashingENS_20_Default_ranged_hashENS_20_Prime_rehash_policyENS_17_Hashtable_traitsILb0ELb0ELb1EEELb1EEixERS2_ @575
    _ZNSt8__detailneISt4pairIKjbELb0EEEbRKNS_19_Node_iterator_baseIT_XT0_EEES8_ @576
    _ZSt10_ConstructIN10gameEngine11RenderBatchEIS1_EEvPT_DpOT0_ @577
    _ZSt10__distanceIN9__gnu_cxx17__normal_iteratorIPPN10gameEngine5glyphESt6vectorIS4_SaIS4_EEEEENSt15iterator_traitsIT_E15difference_typeESB_SB_St26random_access_iterator_tag @578
    _ZSt10__distanceIPKhENSt15iterator_traitsIT_E15difference_typeES3_S3_St26random_access_iterator_tag @579
    _ZSt10__fill_n_aIPN10gameEngine6vertexEjS1_EN9__gnu_cxx11__enable_ifIXntsrSt11__is_scalarIT1_E7__valueET_E6__typeES8_T0_RKS6_ @580
    _ZSt10__fill_n_aIPmjmEN9__gnu_cxx11__enable_ifIXsrSt11__is_scalarIT1_E7__valueET_E6__typeES6_T0_RKS4_ @581
    _ZSt10__fill_n_aIjcEN9__gnu_cxx11__enable_ifIXsrSt9__is_byteIT0_E7__valueEPS3_E6__typeES5_T_RKS3_ @582
    _ZSt10__fill_n_aIjhEN9__gnu_cxx11__enable_ifIXsrSt9__is_byteIT0_E7__valueEPS3_E6__typeES5_T_RKS3_ @583
    _ZSt11__addressofIN10gameEngine11RenderBatchEEPT_RS2_ @584
    _ZSt11__addressofIN10gameEngine6vertexEEPT_RS2_ @585
    _ZSt11__addressofISt4pairIKSsN10gameEngine9GLtextureEEEPT_RS5_ @586
    _ZSt11__addressofISt4pairIKjbEEPT_RS3_ @587
    _ZSt11lower_boundIN9__gnu_cxx17__normal_iteratorIPPN10gameEngine5glyphESt6vectorIS4_SaIS4_EEEES4_PFbS4_S4_EET_SC_SC_RKT0_T1_ @588
    _ZSt11stable_sortIN9__gnu_cxx17__normal_iteratorIPPN10gameEngine5glyphESt6vectorIS4_SaIS4_EEEEPFbS4_S4_EEvT_SC_T0_ @589
    _ZSt11swap_rangesIN9__gnu_cxx17__normal_iteratorIPPN10gameEngine5glyphESt6vectorIS4_SaIS4_EEEES9_ET0_T_SB_SA_ @590
    _ZSt11upper_boundIN9__gnu_cxx17__normal_iteratorIPPN10gameEngine5glyphESt6vectorIS4_SaIS4_EEEES4_PFbS4_S4_EET_SC_SC_RKT0_T1_ @591
    _ZSt12__get_helperILj0ERKjIEENSt9__add_refIT0_E4typeERSt11_Tuple_implIXT_EIS3_DpT1_EE @592
    _ZSt12__miter_baseIN9__gnu_cxx17__normal_iteratorIPKhSt6vectorIhSaIhEEEEENSt11_Miter_baseIT_E13iterator_typeES9_ @593
    _ZSt12__miter_baseIN9__gnu_cxx17__normal_iteratorIPPN10gameEngine5glyphESt6vectorIS4_SaIS4_EEEEENSt11_Miter_baseIT_E13iterator_typeESB_ @594
    _ZSt12__miter_baseIPKhENSt11_Miter_baseIT_E13iterator_typeES3_ @595
    _ZSt12__miter_baseIPPN10gameEngine5glyphEENSt11_Miter_baseIT_E13iterator_typeES5_ @596
    _ZSt12__miter_baseIPhENSt11_Miter_baseIT_E13iterator_typeES2_ @597
    _ZSt12__miter_baseIPmENSt11_Miter_baseIT_E13iterator_typeES2_ @598
    _ZSt12__miter_baseISt13move_iteratorIPN10gameEngine6vertexEEENSt11_Miter_baseIT_E13iterator_typeES6_ @599
    _ZSt12__miter_baseISt13move_iteratorIPPN10gameEngine5glyphEEENSt11_Miter_baseIT_E13iterator_typeES7_ @600
    _ZSt12__miter_baseISt13move_iteratorIPhEENSt11_Miter_baseIT_E13iterator_typeES4_ @601
    _ZSt12__miter_baseISt13move_iteratorIPmEENSt11_Miter_baseIT_E13iterator_typeES4_ @602
    _ZSt12__move_mergeIN9__gnu_cxx17__normal_iteratorIPPN10gameEngine5glyphESt6vectorIS4_SaIS4_EEEES9_S5_PFbS4_S4_EET1_T_SD_T0_SE_SC_T2_ @603
    _ZSt12__move_mergeIPPN10gameEngine5glyphES3_N9__gnu_cxx17__normal_iteratorIS3_St6vectorIS2_SaIS2_EEEEPFbS2_S2_EET1_T_SD_T0_SE_SC_T2_ @604
    _ZSt12__niter_baseIN9__gnu_cxx17__normal_iteratorIPKhSt6vectorIhSaIhEEEEENSt11_Niter_baseIT_E13iterator_typeES9_ @605
    _ZSt12__niter_baseIN9__gnu_cxx17__normal_iteratorIPPN10gameEngine5glyphESt6vectorIS4_SaIS4_EEEEENSt11_Niter_baseIT_E13iterator_typeESB_ @606
    _ZSt12__niter_baseIN9__gnu_cxx17__normal_iteratorIPhSt6vectorIhSaIhEEEEENSt11_Niter_baseIT_E13iterator_typeES8_ @607
    _ZSt12__niter_baseIPKhENSt11_Niter_baseIT_E13iterator_typeES3_ @608
    _ZSt12__niter_baseIPN10gameEngine6vertexEENSt11_Niter_baseIT_E13iterator_typeES4_ @609
    _ZSt12__niter_baseIPPN10gameEngine5glyphEENSt11_Niter_baseIT_E13iterator_typeES5_ @610
    _ZSt12__niter_baseIPcENSt11_Niter_baseIT_E13iterator_typeES2_ @611
    _ZSt12__niter_baseIPhENSt11_Niter_baseIT_E13iterator_typeES2_ @612
    _ZSt12__niter_baseIPmENSt11_Niter_baseIT_E13iterator_typeES2_ @613
    _ZSt13__copy_move_aILb0EPKhPhET1_T0_S4_S3_ @614
    _ZSt13__copy_move_aILb1EPN10gameEngine6vertexES2_ET1_T0_S4_S3_ @615
    _ZSt13__copy_move_aILb1EPPN10gameEngine5glyphES3_ET1_T0_S5_S4_ @616
    _ZSt13__copy_move_aILb1EPhS0_ET1_T0_S2_S1_ @617
    _ZSt13__copy_move_aILb1EPmS0_ET1_T0_S2_S1_ @618
    _ZSt13move_backwardIN9__gnu_cxx17__normal_iteratorIPPN10gameEngine5glyphESt6vectorIS4_SaIS4_EEEES9_ET0_T_SB_SA_ @619
    _ZSt13move_backwardIPPN10gameEngine5glyphEN9__gnu_cxx17__normal_iteratorIS3_St6vectorIS2_SaIS2_EEEEET0_T_SB_SA_ @620
    _ZSt13move_backwardIPhS0_ET0_T_S2_S1_ @621
    _ZSt13move_backwardIPmS0_ET0_T_S2_S1_ @622
    _ZSt14__copy_move_a2ILb0EN9__gnu_cxx17__normal_iteratorIPKhSt6vectorIhSaIhEEEEPhET1_T0_SA_S9_ @623
    _ZSt14__copy_move_a2ILb0EPKhN9__gnu_cxx17__normal_iteratorIPhSt6vectorIhSaIhEEEEET1_T0_SA_S9_ @624
    _ZSt14__copy_move_a2ILb0EPKhPhET1_T0_S4_S3_ @625
    _ZSt14__copy_move_a2ILb1EN9__gnu_cxx17__normal_iteratorIPPN10gameEngine5glyphESt6vectorIS4_SaIS4_EEEES5_ET1_T0_SB_SA_ @626
    _ZSt14__copy_move_a2ILb1EN9__gnu_cxx17__normal_iteratorIPPN10gameEngine5glyphESt6vectorIS4_SaIS4_EEEES9_ET1_T0_SB_SA_ @627
    _ZSt14__copy_move_a2ILb1EPN10gameEngine6vertexES2_ET1_T0_S4_S3_ @628
    _ZSt14__copy_move_a2ILb1EPPN10gameEngine5glyphEN9__gnu_cxx17__normal_iteratorIS3_St6vectorIS2_SaIS2_EEEEET1_T0_SB_SA_ @629
    _ZSt14__copy_move_a2ILb1EPPN10gameEngine5glyphES3_ET1_T0_S5_S4_ @630
    _ZSt14__copy_move_a2ILb1EPhS0_ET1_T0_S2_S1_ @631
    _ZSt14__copy_move_a2ILb1EPmS0_ET1_T0_S2_S1_ @632
    _ZSt16__insertion_sortIN9__gnu_cxx17__normal_iteratorIPPN10gameEngine5glyphESt6vectorIS4_SaIS4_EEEEPFbS4_S4_EEvT_SC_T0_ @633
    _ZSt16__merge_adaptiveIN9__gnu_cxx17__normal_iteratorIPPN10gameEngine5glyphESt6vectorIS4_SaIS4_EEEEiS5_PFbS4_S4_EEvT_SC_SC_T0_SD_T1_SD_T2_ @634
    _ZSt17__merge_sort_loopIN9__gnu_cxx17__normal_iteratorIPPN10gameEngine5glyphESt6vectorIS4_SaIS4_EEEES5_iPFbS4_S4_EEvT_SC_T0_T1_T2_ @635
    _ZSt17__merge_sort_loopIPPN10gameEngine5glyphEN9__gnu_cxx17__normal_iteratorIS3_St6vectorIS2_SaIS2_EEEEiPFbS2_S2_EEvT_SC_T0_T1_T2_ @636
    _ZSt17__rotate_adaptiveIN9__gnu_cxx17__normal_iteratorIPPN10gameEngine5glyphESt6vectorIS4_SaIS4_EEEES5_iET_SA_SA_SA_T1_SB_T0_SB_ @637
    _ZSt18make_move_iteratorIPhESt13move_iteratorIT_ES2_ @638
    _ZSt18make_move_iteratorIPmESt13move_iteratorIT_ES2_ @639
    _ZSt18uninitialized_copyIN9__gnu_cxx17__normal_iteratorIPKhSt6vectorIhSaIhEEEEPhET0_T_SA_S9_ @640
    _ZSt18uninitialized_copyIPKhPhET0_T_S4_S3_ @641
    _ZSt18uninitialized_copyISt13move_iteratorIPN10gameEngine11RenderBatchEES3_ET0_T_S6_S5_ @642
    _ZSt18uninitialized_copyISt13move_iteratorIPN10gameEngine6vertexEES3_ET0_T_S6_S5_ @643
    _ZSt18uninitialized_copyISt13move_iteratorIPPN10gameEngine5glyphEES4_ET0_T_S7_S6_ @644
    _ZSt18uninitialized_copyISt13move_iteratorIPhES1_ET0_T_S4_S3_ @645
    _ZSt18uninitialized_copyISt13move_iteratorIPmES1_ET0_T_S4_S3_ @646
    _ZSt19__iterator_categoryIN9__gnu_cxx17__normal_iteratorIPPN10gameEngine5glyphESt6vectorIS4_SaIS4_EEEEENSt15iterator_traitsIT_E17iterator_categoryERKSB_ @647
    _ZSt19__iterator_categoryIPKhENSt15iterator_traitsIT_E17iterator_categoryERKS3_ @648
    _ZSt20get_temporary_bufferIPN10gameEngine5glyphEESt4pairIPT_iEi @649
    _ZSt20uninitialized_fill_nIPmjmEvT_T0_RKT1_ @650
    _ZSt21__inplace_stable_sortIN9__gnu_cxx17__normal_iteratorIPPN10gameEngine5glyphESt6vectorIS4_SaIS4_EEEEPFbS4_S4_EEvT_SC_T0_ @651
    _ZSt21__move_merge_adaptiveIPPN10gameEngine5glyphEN9__gnu_cxx17__normal_iteratorIS3_St6vectorIS2_SaIS2_EEEES9_PFbS2_S2_EEvT_SC_T0_SD_T1_T2_ @652
    _ZSt22__chunk_insertion_sortIN9__gnu_cxx17__normal_iteratorIPPN10gameEngine5glyphESt6vectorIS4_SaIS4_EEEEiPFbS4_S4_EEvT_SC_T0_T1_ @653
    _ZSt22__copy_move_backward_aILb1EPPN10gameEngine5glyphES3_ET1_T0_S5_S4_ @654
    _ZSt22__copy_move_backward_aILb1EPhS0_ET1_T0_S2_S1_ @655
    _ZSt22__copy_move_backward_aILb1EPmS0_ET1_T0_S2_S1_ @656
    _ZSt22__merge_without_bufferIN9__gnu_cxx17__normal_iteratorIPPN10gameEngine5glyphESt6vectorIS4_SaIS4_EEEEiPFbS4_S4_EEvT_SC_SC_T0_SD_T1_ @657
    _ZSt22__stable_sort_adaptiveIN9__gnu_cxx17__normal_iteratorIPPN10gameEngine5glyphESt6vectorIS4_SaIS4_EEEES5_iPFbS4_S4_EEvT_SC_T0_T1_T2_ @658
    _ZSt22__uninitialized_copy_aIN9__gnu_cxx17__normal_iteratorIPKhSt6vectorIhSaIhEEEEPhhET0_T_SA_S9_RSaIT1_E @659
    _ZSt22__uninitialized_copy_aIPKhPhhET0_T_S4_S3_RSaIT1_E @660
    _ZSt22__uninitialized_copy_aISt13move_iteratorIPN10gameEngine11RenderBatchEES3_S2_ET0_T_S6_S5_RSaIT1_E @661
    _ZSt22__uninitialized_copy_aISt13move_iteratorIPN10gameEngine6vertexEES3_S2_ET0_T_S6_S5_RSaIT1_E @662
    _ZSt22__uninitialized_copy_aISt13move_iteratorIPPN10gameEngine5glyphEES4_S3_ET0_T_S7_S6_RSaIT1_E @663
    _ZSt22__uninitialized_copy_aISt13move_iteratorIPhES1_hET0_T_S4_S3_RSaIT1_E @664
    _ZSt22__uninitialized_copy_aISt13move_iteratorIPmES1_mET0_T_S4_S3_RSaIT1_E @665
    _ZSt22__uninitialized_move_aIPhS0_SaIhEET0_T_S3_S2_RT1_ @666
    _ZSt22__uninitialized_move_aIPmS0_SaImEET0_T_S3_S2_RT1_ @667
    _ZSt23__copy_move_backward_a2ILb1EN9__gnu_cxx17__normal_iteratorIPPN10gameEngine5glyphESt6vectorIS4_SaIS4_EEEES9_ET1_T0_SB_SA_ @668
    _ZSt23__copy_move_backward_a2ILb1EPPN10gameEngine5glyphEN9__gnu_cxx17__normal_iteratorIS3_St6vectorIS2_SaIS2_EEEEET1_T0_SB_SA_ @669
    _ZSt23__copy_move_backward_a2ILb1EPhS0_ET1_T0_S2_S1_ @670
    _ZSt23__copy_move_backward_a2ILb1EPmS0_ET1_T0_S2_S1_ @671
    _ZSt23return_temporary_bufferIPN10gameEngine5glyphEEvPT_ @672
    _ZSt24__merge_sort_with_bufferIN9__gnu_cxx17__normal_iteratorIPPN10gameEngine5glyphESt6vectorIS4_SaIS4_EEEES5_PFbS4_S4_EEvT_SC_T0_T1_ @673
    _ZSt24__uninitialized_fill_n_aIPmjmmEvT_T0_RKT1_RSaIT2_E @674
    _ZSt25__unguarded_linear_insertIN9__gnu_cxx17__normal_iteratorIPPN10gameEngine5glyphESt6vectorIS4_SaIS4_EEEEPFbS4_S4_EEvT_T0_ @675
    _ZSt25__uninitialized_default_nIPN10gameEngine6vertexEjEvT_T0_ @676
    _ZSt25__uninitialized_default_nIPcjEvT_T0_ @677
    _ZSt25__uninitialized_default_nIPhjEvT_T0_ @678
    _ZSt25__uninitialized_default_nIPmjEvT_T0_ @679
    _ZSt27__uninitialized_default_n_aIPN10gameEngine6vertexEjS1_EvT_T0_RSaIT1_E @680
    _ZSt27__uninitialized_default_n_aIPcjcEvT_T0_RSaIT1_E @681
    _ZSt27__uninitialized_default_n_aIPhjhEvT_T0_RSaIT1_E @682
    _ZSt27__uninitialized_default_n_aIPmjmEvT_T0_RSaIT1_E @683
    _ZSt29__uninitialized_construct_bufIPPN10gameEngine5glyphEN9__gnu_cxx17__normal_iteratorIS3_St6vectorIS2_SaIS2_EEEEEvT_SA_T0_ @684
    _ZSt30__move_merge_adaptive_backwardIN9__gnu_cxx17__normal_iteratorIPPN10gameEngine5glyphESt6vectorIS4_SaIS4_EEEES5_S9_PFbS4_S4_EEvT_SC_T0_SD_T1_T2_ @685
    _ZSt32__make_move_if_noexcept_iteratorIPN10gameEngine11RenderBatchESt13move_iteratorIS2_EET0_T_ @686
    _ZSt32__make_move_if_noexcept_iteratorIPN10gameEngine6vertexESt13move_iteratorIS2_EET0_T_ @687
    _ZSt32__make_move_if_noexcept_iteratorIPPN10gameEngine5glyphESt13move_iteratorIS3_EET0_T_ @688
    _ZSt32__make_move_if_noexcept_iteratorIPhSt13move_iteratorIS0_EET0_T_ @689
    _ZSt32__make_move_if_noexcept_iteratorIPmSt13move_iteratorIS0_EET0_T_ @690
    _ZSt34__uninitialized_move_if_noexcept_aIPN10gameEngine11RenderBatchES2_SaIS1_EET0_T_S5_S4_RT1_ @691
    _ZSt34__uninitialized_move_if_noexcept_aIPN10gameEngine6vertexES2_SaIS1_EET0_T_S5_S4_RT1_ @692
    _ZSt34__uninitialized_move_if_noexcept_aIPPN10gameEngine5glyphES3_SaIS2_EET0_T_S6_S5_RT1_ @693
    _ZSt34__uninitialized_move_if_noexcept_aIPhS0_SaIhEET0_T_S3_S2_RT1_ @694
    _ZSt34__uninitialized_move_if_noexcept_aIPmS0_SaImEET0_T_S3_S2_RT1_ @695
    _ZSt3getILj0EIRKjEENSt9__add_refINSt13tuple_elementIXT_ESt5tupleIIDpT0_EEE4typeEE4typeERS7_ @696
    _ZSt3getILj0EKjbERKNSt13tuple_elementIXT_ESt4pairIT0_T1_EE4typeERKS5_ @697
    _ZSt3getILj0EKjbERNSt13tuple_elementIXT_ESt4pairIT0_T1_EE4typeERS5_ @698
    _ZSt3maxIjERKT_S2_S2_ @699
    _ZSt3minIiERKT_S2_S2_ @700
    _ZSt4copyIN9__gnu_cxx17__normal_iteratorIPKhSt6vectorIhSaIhEEEEPhET0_T_SA_S9_ @701
    _ZSt4copyIPKhN9__gnu_cxx17__normal_iteratorIPhSt6vectorIhSaIhEEEEET0_T_SA_S9_ @702
    _ZSt4copyIPKhPhET0_T_S4_S3_ @703
    _ZSt4copyISt13move_iteratorIPN10gameEngine6vertexEES3_ET0_T_S6_S5_ @704
    _ZSt4copyISt13move_iteratorIPPN10gameEngine5glyphEES4_ET0_T_S7_S6_ @705
    _ZSt4copyISt13move_iteratorIPhES1_ET0_T_S4_S3_ @706
    _ZSt4copyISt13move_iteratorIPmES1_ET0_T_S4_S3_ @707
    _ZSt4fillIPmmEvT_S1_RKT0_ @708
    _ZSt4moveIN9__gnu_cxx17__normal_iteratorIPPN10gameEngine5glyphESt6vectorIS4_SaIS4_EEEES5_ET0_T_SB_SA_ @709
    _ZSt4moveIN9__gnu_cxx17__normal_iteratorIPPN10gameEngine5glyphESt6vectorIS4_SaIS4_EEEES9_ET0_T_SB_SA_ @710
    _ZSt4moveIPPN10gameEngine5glyphEN9__gnu_cxx17__normal_iteratorIS3_St6vectorIS2_SaIS2_EEEEET0_T_SB_SA_ @711
    _ZSt4moveIRN10gameEngine11RenderBatchEEONSt16remove_referenceIT_E4typeEOS4_ @712
    _ZSt4moveIRPN10gameEngine5glyphEEONSt16remove_referenceIT_E4typeEOS5_ @713
    _ZSt4moveIRSsEONSt16remove_referenceIT_E4typeEOS2_ @714
    _ZSt4moveIRSt11_Tuple_implILj1EIEEEONSt16remove_referenceIT_E4typeEOS4_ @715
    _ZSt4moveIRiEONSt16remove_referenceIT_E4typeEOS2_ @716
    _ZSt4swapIPN10gameEngine5glyphEEvRT_S4_ @717
    _ZSt4swapIiEvRT_S1_ @718
    _ZSt6fill_nIPN10gameEngine6vertexEjS1_ET_S3_T0_RKT1_ @719
    _ZSt6fill_nIPcjcET_S1_T0_RKT1_ @720
    _ZSt6fill_nIPhjhET_S1_T0_RKT1_ @721
    _ZSt6fill_nIPmjmET_S1_T0_RKT1_ @722
    _ZSt6rotateIN9__gnu_cxx17__normal_iteratorIPPN10gameEngine5glyphESt6vectorIS4_SaIS4_EEEEEvT_SA_SA_ @723
    _ZSt7advanceIN9__gnu_cxx17__normal_iteratorIPPN10gameEngine5glyphESt6vectorIS4_SaIS4_EEEEiEvRT_T0_ @724
    _ZSt7advanceIPKhjEvRT_T0_ @725
    _ZSt7forwardIN10gameEngine11RenderBatchEEOT_RNSt16remove_referenceIS2_E4typeE @726
    _ZSt7forwardIN10gameEngine9GLtextureEEOT_RNSt16remove_referenceIS2_E4typeE @727
    _ZSt7forwardIPPN10gameEngine5glyphEEOT_RNSt16remove_referenceIS4_E4typeE @728
    _ZSt7forwardIRKPN10gameEngine5glyphEEOT_RNSt16remove_referenceIS5_E4typeE @729
    _ZSt7forwardIRKSaISt4pairIKjbEEEOT_RNSt16remove_referenceIS6_E4typeE @730
    _ZSt7forwardIRKSt21piecewise_construct_tEOT_RNSt16remove_referenceIS3_E4typeE @731
    _ZSt7forwardIRKSt4pairIKjbEEOT_RNSt16remove_referenceIS5_E4typeE @732
    _ZSt7forwardIRKjEOT_RNSt16remove_referenceIS2_E4typeE @733
    _ZSt7forwardIRN10gameEngine9GLtextureEEOT_RNSt16remove_referenceIS3_E4typeE @734
    _ZSt7forwardIRPPN10gameEngine5glyphEEOT_RNSt16remove_referenceIS5_E4typeE @735
    _ZSt7forwardIRPSt13_Rb_tree_nodeISt4pairIKSsN10gameEngine9GLtextureEEEEOT_RNSt16remove_referenceIS9_E4typeE @736
    _ZSt7forwardIRPSt18_Rb_tree_node_baseEOT_RNSt16remove_referenceIS3_E4typeE @737
    _ZSt7forwardIRSsEOT_RNSt16remove_referenceIS1_E4typeE @738
    _ZSt7forwardIRSt4pairIKjbEEOT_RNSt16remove_referenceIS4_E4typeE @739
    _ZSt7forwardIRiEOT_RNSt16remove_referenceIS1_E4typeE @740
    _ZSt7forwardIRjEOT_RNSt16remove_referenceIS1_E4typeE @741
    _ZSt7forwardISsEOT_RNSt16remove_referenceIS0_E4typeE @742
    _ZSt7forwardISt17_Rb_tree_iteratorISt4pairIKSsN10gameEngine9GLtextureEEEEOT_RNSt16remove_referenceIS7_E4typeE @743
    _ZSt7forwardISt4pairISsN10gameEngine9GLtextureEEEOT_RNSt16remove_referenceIS4_E4typeE @744
    _ZSt7forwardISt5tupleIIEEEOT_RNSt16remove_referenceIS2_E4typeE @745
    _ZSt7forwardISt5tupleIIRKjEEEOT_RNSt16remove_referenceIS4_E4typeE @746
    _ZSt7forwardIbEOT_RNSt16remove_referenceIS0_E4typeE @747
    _ZSt7forwardIiEOT_RNSt16remove_referenceIS0_E4typeE @748
    _ZSt8_DestroyIPN10gameEngine11RenderBatchEEvT_S3_ @749
    _ZSt8_DestroyIPN10gameEngine11RenderBatchES1_EvT_S3_RSaIT0_E @750
    _ZSt8_DestroyIPN10gameEngine6vertexEEvT_S3_ @751
    _ZSt8_DestroyIPN10gameEngine6vertexES1_EvT_S3_RSaIT0_E @752
    _ZSt8_DestroyIPPN10gameEngine5glyphEEvT_S4_ @753
    _ZSt8_DestroyIPPN10gameEngine5glyphES2_EvT_S4_RSaIT0_E @754
    _ZSt8_DestroyIPcEvT_S1_ @755
    _ZSt8_DestroyIPccEvT_S1_RSaIT0_E @756
    _ZSt8_DestroyIPhEvT_S1_ @757
    _ZSt8_DestroyIPhhEvT_S1_RSaIT0_E @758
    _ZSt8_DestroyIPmEvT_S1_ @759
    _ZSt8_DestroyIPmmEvT_S1_RSaIT0_E @760
    _ZSt8__fill_aIPmmEN9__gnu_cxx11__enable_ifIXsrSt11__is_scalarIT0_E7__valueEvE6__typeET_S8_RKS4_ @761
    _ZSt8__fill_aIcEN9__gnu_cxx11__enable_ifIXsrSt9__is_byteIT_E7__valueEvE6__typeEPS3_S7_RKS3_ @762
    _ZSt8__fill_aIhEN9__gnu_cxx11__enable_ifIXsrSt9__is_byteIT_E7__valueEvE6__typeEPS3_S7_RKS3_ @763
    _ZSt8__rotateIN9__gnu_cxx17__normal_iteratorIPPN10gameEngine5glyphESt6vectorIS4_SaIS4_EEEEEvT_SA_SA_St26random_access_iterator_tag @764
    _ZSt8distanceIN9__gnu_cxx17__normal_iteratorIPPN10gameEngine5glyphESt6vectorIS4_SaIS4_EEEEENSt15iterator_traitsIT_E15difference_typeESB_SB_ @765
    _ZSt8distanceIPKhENSt15iterator_traitsIT_E15difference_typeES3_S3_ @766
    _ZSt9__advanceIN9__gnu_cxx17__normal_iteratorIPPN10gameEngine5glyphESt6vectorIS4_SaIS4_EEEEiEvRT_T0_St26random_access_iterator_tag @767
    _ZSt9__advanceIPKhiEvRT_T0_St26random_access_iterator_tag @768
    _ZSt9iter_swapIN9__gnu_cxx17__normal_iteratorIPPN10gameEngine5glyphESt6vectorIS4_SaIS4_EEEES9_EvT_T0_ @769
    _ZSt9make_pairIRSsRN10gameEngine9GLtextureEESt4pairINSt17__decay_and_stripIT_E6__typeENS5_IT0_E6__typeEEOS6_OS9_ @770
    _ZSteqIPN10gameEngine11RenderBatchEEbRKSt13move_iteratorIT_ES7_ @771
    _ZStltIcSt11char_traitsIcESaIcEEbRKSbIT_T0_T1_ES8_ @772
    _ZStneIPN10gameEngine11RenderBatchEEbRKSt13move_iteratorIT_ES7_ @773
    _ZStplIcSt11char_traitsIcESaIcEESbIT_T0_T1_EOS6_PKS3_ @774
    _ZStplIcSt11char_traitsIcESaIcEESbIT_T0_T1_EPKS3_RKS6_ @775
    _ZStplIcSt11char_traitsIcESaIcEESbIT_T0_T1_ERKS6_PKS3_ @776
    _ZTI12InputManager @777 DATA
    _ZTIN10gameEngine11spriteBatchE @778 DATA
    _ZTIN10gameEngine12TextureCacheE @779 DATA
    _ZTIN10gameEngine6WindowE @780 DATA
    _ZTIN10gameEngine6spriteE @781 DATA
    _ZTIN10gameEngine8Camera2DE @782 DATA
    _ZTIN10gameEngine8GLSLprogE @783 DATA
    _ZTS12InputManager @784 DATA
    _ZTSN10gameEngine11spriteBatchE @785 DATA
    _ZTSN10gameEngine12TextureCacheE @786 DATA
    _ZTSN10gameEngine6WindowE @787 DATA
    _ZTSN10gameEngine6spriteE @788 DATA
    _ZTSN10gameEngine8Camera2DE @789 DATA
    _ZTSN10gameEngine8GLSLprogE @790 DATA
    _ZTV12InputManager @791 DATA
    _ZTVN10gameEngine11spriteBatchE @792 DATA
    _ZTVN10gameEngine12TextureCacheE @793 DATA
    _ZTVN10gameEngine6WindowE @794 DATA
    _ZTVN10gameEngine6spriteE @795 DATA
    _ZTVN10gameEngine8Camera2DE @796 DATA
    _ZTVN10gameEngine8GLSLprogE @797 DATA
    _ZdlPvS_ @798
    _ZnwjPv @799
    _get_output_format @800
    _nm____glewAttachShader @801 DATA
    _nm____glewBindAttribLocation @802 DATA
    _nm____glewBindBuffer @803 DATA
    _nm____glewBindVertexArray @804 DATA
    _nm____glewBufferData @805 DATA
    _nm____glewBufferSubData @806 DATA
    _nm____glewCompileShader @807 DATA
    _nm____glewCreateProgram @808 DATA
    _nm____glewCreateShader @809 DATA
    _nm____glewDeleteBuffers @810 DATA
    _nm____glewDeleteProgram @811 DATA
    _nm____glewDeleteShader @812 DATA
    _nm____glewDetachShader @813 DATA
    _nm____glewDisableVertexAttribArray @814 DATA
    _nm____glewEnableVertexAttribArray @815 DATA
    _nm____glewGenBuffers @816 DATA
    _nm____glewGenVertexArrays @817 DATA
    _nm____glewGenerateMipmap @818 DATA
    _nm____glewGetProgramInfoLog @819 DATA
    _nm____glewGetProgramiv @820 DATA
    _nm____glewGetShaderInfoLog @821 DATA
    _nm____glewGetShaderiv @822 DATA
    _nm____glewGetUniformLocation @823 DATA
    _nm____glewLinkProgram @824 DATA
    _nm____glewShaderSource @825 DATA
    _nm____glewUseProgram @826 DATA
    _nm____glewVertexAttribPointer @827 DATA
    printf @828
